

Microchip MPLAB XC8 Assembler V2.36 build 20220127204148 
                                                                                               Wed Apr 20 11:36:55 2022

Microchip MPLAB XC8 C Compiler v2.36 (Free license) build 20220127204148 Og1 
     1                           	processor	16F18446
     2                           	pagewidth 120
     3                           	opt	flic
     4                           	psect	stringtext1,global,class=STRCODE,delta=2,noexec
     5                           	psect	stringtext2,global,class=STRCODE,delta=2,noexec
     6                           	psect	stringtext3,global,class=STRCODE,delta=2,noexec
     7                           	psect	stringtext4,global,class=STRCODE,delta=2,noexec
     8                           	psect	stringtext5,global,class=STRCODE,delta=2,noexec
     9                           	psect	cinit,global,class=CODE,merge=1,delta=2
    10                           	psect	bssCOMMON,global,class=COMMON,space=1,delta=1,noexec
    11                           	psect	bssBANK0,global,class=BANK0,space=1,delta=1,noexec
    12                           	psect	bssBANK1,global,class=BANK1,space=1,delta=1,noexec
    13                           	psect	clrtext,global,class=CODE,delta=2
    14                           	psect	cstackCOMMON,global,class=COMMON,space=1,delta=1,noexec
    15                           	psect	cstackBANK0,global,class=BANK0,space=1,delta=1,noexec
    16                           	psect	maintext,global,class=CODE,merge=1,split=1,delta=2
    17                           	psect	text1,local,class=CODE,merge=1,delta=2
    18                           	psect	text2,local,class=CODE,merge=1,delta=2,group=3
    19                           	psect	text3,local,class=CODE,merge=1,delta=2,group=1
    20                           	psect	text4,local,class=CODE,merge=1,delta=2,group=1
    21                           	psect	text5,local,class=CODE,merge=1,delta=2,group=3
    22                           	psect	text6,local,class=CODE,merge=1,delta=2
    23                           	psect	text7,local,class=CODE,merge=1,delta=2
    24                           	psect	text8,local,class=CODE,merge=1,delta=2
    25                           	psect	text9,local,class=CODE,merge=1,delta=2
    26                           	psect	text10,local,class=CODE,merge=1,delta=2
    27                           	psect	text11,local,class=CODE,merge=1,delta=2
    28                           	psect	text12,local,class=CODE,merge=1,delta=2
    29                           	psect	text13,local,class=CODE,merge=1,delta=2
    30                           	psect	text14,local,class=CODE,merge=1,delta=2
    31                           	psect	text15,local,class=CODE,merge=1,delta=2
    32                           	psect	text16,local,class=CODE,merge=1,delta=2
    33                           	psect	text17,local,class=CODE,merge=1,delta=2
    34                           	psect	text18,local,class=CODE,merge=1,delta=2
    35                           	psect	text19,local,class=CODE,merge=1,delta=2
    36                           	psect	intentry,global,class=CODE,delta=2
    37                           	psect	text21,local,class=CODE,merge=1,delta=2
    38                           	psect	text22,local,class=CODE,merge=1,delta=2
    39                           	psect	text23,local,class=CODE,merge=1,delta=2
    40                           	psect	text24,local,class=CODE,merge=1,delta=2
    41                           	psect	text25,local,class=CODE,merge=1,delta=2
    42                           	psect	text26,local,class=CODE,merge=1,delta=2
    43                           	psect	config,global,abs,ovrld,class=CONFIG,space=4,delta=2,noexec
    44                           	dabs	1,0x7E,2
    45  0000                     
    46                           ; Version 2.40
    47                           ; Generated 17/02/2022 GMT
    48                           ; 
    49                           ; Copyright © 2022, Microchip Technology Inc. and its subsidiaries ("Microchip")
    50                           ; All rights reserved.
    51                           ; 
    52                           ; This software is developed by Microchip Technology Inc. and its subsidiaries ("Microch
      +                          ip").
    53                           ; 
    54                           ; Redistribution and use in source and binary forms, with or without modification, are
    55                           ; permitted provided that the following conditions are met:
    56                           ; 
    57                           ;     1. Redistributions of source code must retain the above copyright notice, this lis
      +                          t of
    58                           ;        conditions and the following disclaimer.
    59                           ; 
    60                           ;     2. Redistributions in binary form must reproduce the above copyright notice, this 
      +                          list
    61                           ;        of conditions and the following disclaimer in the documentation and/or other
    62                           ;        materials provided with the distribution. Publication is not required when
    63                           ;        this file is used in an embedded application.
    64                           ; 
    65                           ;     3. Microchip's name may not be used to endorse or promote products derived from th
      +                          is
    66                           ;        software without specific prior written permission.
    67                           ; 
    68                           ; THIS SOFTWARE IS PROVIDED BY MICROCHIP "AS IS" AND ANY EXPRESS OR IMPLIED WARRANTIES,
    69                           ; INCLUDING, BUT NOT LIMITED TO, THE IMPLIED WARRANTIES OF MERCHANTABILITY AND FITNESS F
      +                          OR
    70                           ; PURPOSE ARE DISCLAIMED.  IN NO EVENT SHALL MICROCHIP BE LIABLE FOR ANY DIRECT, INDIREC
      +                          T,
    71                           ; INCIDENTAL, SPECIAL, EXEMPLARY, OR CONSEQUENTIAL DAMAGES (INCLUDING BUT NOT LIMITED TO
    72                           ; PROCUREMENT OF SUBSTITUTE GOODS OR SERVICES; LOSS OF USE, DATA OR PROFITS; OR BUSINESS
    73                           ; INTERRUPTION) HOWSOEVER CAUSED AND ON ANY THEORY OF LIABILITY, WHETHER IN CONTRACT, ST
      +                          RICT
    74                           ; LIABILITY, OR TORT (INCLUDING NEGLIGENCE OR OTHERWISE) ARISING IN ANY WAY OUT OF THE U
      +                          SE OF
    75                           ; THIS SOFTWARE, EVEN IF ADVISED OF THE POSSIBILITY OF SUCH DAMAGE.
    76                           ; 
    77                           ; 
    78                           ; Code-generator required, PIC16F18446 Definitions
    79                           ; 
    80                           ; SFR Addresses
    81  0000                     	;# 
    82  0001                     	;# 
    83  0002                     	;# 
    84  0003                     	;# 
    85  0004                     	;# 
    86  0005                     	;# 
    87  0006                     	;# 
    88  0007                     	;# 
    89  0008                     	;# 
    90  0009                     	;# 
    91  000A                     	;# 
    92  000B                     	;# 
    93  000C                     	;# 
    94  000D                     	;# 
    95  000E                     	;# 
    96  0012                     	;# 
    97  0013                     	;# 
    98  0014                     	;# 
    99  0018                     	;# 
   100  0019                     	;# 
   101  001A                     	;# 
   102  008C                     	;# 
   103  008C                     	;# 
   104  008D                     	;# 
   105  008E                     	;# 
   106  008E                     	;# 
   107  008F                     	;# 
   108  0090                     	;# 
   109  0090                     	;# 
   110  0091                     	;# 
   111  0092                     	;# 
   112  0092                     	;# 
   113  0093                     	;# 
   114  0094                     	;# 
   115  0094                     	;# 
   116  0095                     	;# 
   117  0096                     	;# 
   118  0096                     	;# 
   119  0097                     	;# 
   120  0098                     	;# 
   121  0099                     	;# 
   122  009A                     	;# 
   123  009B                     	;# 
   124  009B                     	;# 
   125  009C                     	;# 
   126  009D                     	;# 
   127  009D                     	;# 
   128  009E                     	;# 
   129  009F                     	;# 
   130  010C                     	;# 
   131  010C                     	;# 
   132  010D                     	;# 
   133  010E                     	;# 
   134  010F                     	;# 
   135  010F                     	;# 
   136  0110                     	;# 
   137  0111                     	;# 
   138  0112                     	;# 
   139  0113                     	;# 
   140  0114                     	;# 
   141  0115                     	;# 
   142  0116                     	;# 
   143  0117                     	;# 
   144  0118                     	;# 
   145  0119                     	;# 
   146  0119                     	;# 
   147  0119                     	;# 
   148  011A                     	;# 
   149  011A                     	;# 
   150  011A                     	;# 
   151  011B                     	;# 
   152  011B                     	;# 
   153  011B                     	;# 
   154  011B                     	;# 
   155  011B                     	;# 
   156  011C                     	;# 
   157  011C                     	;# 
   158  011C                     	;# 
   159  011D                     	;# 
   160  011D                     	;# 
   161  011D                     	;# 
   162  011E                     	;# 
   163  011E                     	;# 
   164  011E                     	;# 
   165  011F                     	;# 
   166  011F                     	;# 
   167  011F                     	;# 
   168  011F                     	;# 
   169  011F                     	;# 
   170  018C                     	;# 
   171  018D                     	;# 
   172  018E                     	;# 
   173  018F                     	;# 
   174  0190                     	;# 
   175  0191                     	;# 
   176  0192                     	;# 
   177  0196                     	;# 
   178  0197                     	;# 
   179  0198                     	;# 
   180  0199                     	;# 
   181  019A                     	;# 
   182  019B                     	;# 
   183  019C                     	;# 
   184  020C                     	;# 
   185  020D                     	;# 
   186  020E                     	;# 
   187  020E                     	;# 
   188  020F                     	;# 
   189  020F                     	;# 
   190  0210                     	;# 
   191  0210                     	;# 
   192  0211                     	;# 
   193  0211                     	;# 
   194  0212                     	;# 
   195  0213                     	;# 
   196  0214                     	;# 
   197  0214                     	;# 
   198  0215                     	;# 
   199  0215                     	;# 
   200  0216                     	;# 
   201  0216                     	;# 
   202  0217                     	;# 
   203  0217                     	;# 
   204  0218                     	;# 
   205  0219                     	;# 
   206  021A                     	;# 
   207  021A                     	;# 
   208  021B                     	;# 
   209  021B                     	;# 
   210  021C                     	;# 
   211  021C                     	;# 
   212  021D                     	;# 
   213  021D                     	;# 
   214  021E                     	;# 
   215  021F                     	;# 
   216  028C                     	;# 
   217  028C                     	;# 
   218  028D                     	;# 
   219  028D                     	;# 
   220  028E                     	;# 
   221  028F                     	;# 
   222  0290                     	;# 
   223  0291                     	;# 
   224  0292                     	;# 
   225  0292                     	;# 
   226  0293                     	;# 
   227  0293                     	;# 
   228  0294                     	;# 
   229  0295                     	;# 
   230  0296                     	;# 
   231  0297                     	;# 
   232  0298                     	;# 
   233  0298                     	;# 
   234  0299                     	;# 
   235  0299                     	;# 
   236  029A                     	;# 
   237  029B                     	;# 
   238  029C                     	;# 
   239  029D                     	;# 
   240  029F                     	;# 
   241  030C                     	;# 
   242  030C                     	;# 
   243  030D                     	;# 
   244  030E                     	;# 
   245  030F                     	;# 
   246  0310                     	;# 
   247  0310                     	;# 
   248  0311                     	;# 
   249  0312                     	;# 
   250  0313                     	;# 
   251  0314                     	;# 
   252  0314                     	;# 
   253  0315                     	;# 
   254  0316                     	;# 
   255  0317                     	;# 
   256  0318                     	;# 
   257  0318                     	;# 
   258  0319                     	;# 
   259  031A                     	;# 
   260  031B                     	;# 
   261  038C                     	;# 
   262  038C                     	;# 
   263  038D                     	;# 
   264  038E                     	;# 
   265  0390                     	;# 
   266  0390                     	;# 
   267  0391                     	;# 
   268  0392                     	;# 
   269  048C                     	;# 
   270  048C                     	;# 
   271  048D                     	;# 
   272  048E                     	;# 
   273  048F                     	;# 
   274  048F                     	;# 
   275  0490                     	;# 
   276  0491                     	;# 
   277  0492                     	;# 
   278  0492                     	;# 
   279  0493                     	;# 
   280  0494                     	;# 
   281  0495                     	;# 
   282  0495                     	;# 
   283  0496                     	;# 
   284  0497                     	;# 
   285  0498                     	;# 
   286  0499                     	;# 
   287  049A                     	;# 
   288  049B                     	;# 
   289  049C                     	;# 
   290  049D                     	;# 
   291  058C                     	;# 
   292  058C                     	;# 
   293  058D                     	;# 
   294  058E                     	;# 
   295  058F                     	;# 
   296  058F                     	;# 
   297  0590                     	;# 
   298  0591                     	;# 
   299  0592                     	;# 
   300  0593                     	;# 
   301  059C                     	;# 
   302  059C                     	;# 
   303  059D                     	;# 
   304  059D                     	;# 
   305  059E                     	;# 
   306  059F                     	;# 
   307  060C                     	;# 
   308  060C                     	;# 
   309  060D                     	;# 
   310  060D                     	;# 
   311  060E                     	;# 
   312  060F                     	;# 
   313  0610                     	;# 
   314  0611                     	;# 
   315  0612                     	;# 
   316  0613                     	;# 
   317  0614                     	;# 
   318  0616                     	;# 
   319  0616                     	;# 
   320  0617                     	;# 
   321  0617                     	;# 
   322  0618                     	;# 
   323  0619                     	;# 
   324  061A                     	;# 
   325  061B                     	;# 
   326  061C                     	;# 
   327  061D                     	;# 
   328  061E                     	;# 
   329  070C                     	;# 
   330  070D                     	;# 
   331  070E                     	;# 
   332  070F                     	;# 
   333  0710                     	;# 
   334  0711                     	;# 
   335  0712                     	;# 
   336  0713                     	;# 
   337  0714                     	;# 
   338  0716                     	;# 
   339  0717                     	;# 
   340  0718                     	;# 
   341  0719                     	;# 
   342  071A                     	;# 
   343  071B                     	;# 
   344  071C                     	;# 
   345  071D                     	;# 
   346  071E                     	;# 
   347  0796                     	;# 
   348  0797                     	;# 
   349  0798                     	;# 
   350  0799                     	;# 
   351  079A                     	;# 
   352  079B                     	;# 
   353  079C                     	;# 
   354  079D                     	;# 
   355  080C                     	;# 
   356  080D                     	;# 
   357  080E                     	;# 
   358  080F                     	;# 
   359  0810                     	;# 
   360  0811                     	;# 
   361  0812                     	;# 
   362  0813                     	;# 
   363  0814                     	;# 
   364  081A                     	;# 
   365  081A                     	;# 
   366  081B                     	;# 
   367  081C                     	;# 
   368  081C                     	;# 
   369  081D                     	;# 
   370  081E                     	;# 
   371  081F                     	;# 
   372  088C                     	;# 
   373  088D                     	;# 
   374  088E                     	;# 
   375  088F                     	;# 
   376  0890                     	;# 
   377  0891                     	;# 
   378  0892                     	;# 
   379  0893                     	;# 
   380  0895                     	;# 
   381  0896                     	;# 
   382  0897                     	;# 
   383  0898                     	;# 
   384  0899                     	;# 
   385  089A                     	;# 
   386  089B                     	;# 
   387  090C                     	;# 
   388  090E                     	;# 
   389  090F                     	;# 
   390  091F                     	;# 
   391  098F                     	;# 
   392  098F                     	;# 
   393  0990                     	;# 
   394  0991                     	;# 
   395  0992                     	;# 
   396  0993                     	;# 
   397  0994                     	;# 
   398  0995                     	;# 
   399  0996                     	;# 
   400  0997                     	;# 
   401  1E0F                     	;# 
   402  1E10                     	;# 
   403  1E11                     	;# 
   404  1E12                     	;# 
   405  1E13                     	;# 
   406  1E14                     	;# 
   407  1E15                     	;# 
   408  1E16                     	;# 
   409  1E17                     	;# 
   410  1E18                     	;# 
   411  1E19                     	;# 
   412  1E1A                     	;# 
   413  1E1B                     	;# 
   414  1E1C                     	;# 
   415  1E1D                     	;# 
   416  1E1E                     	;# 
   417  1E1F                     	;# 
   418  1E20                     	;# 
   419  1E21                     	;# 
   420  1E22                     	;# 
   421  1E23                     	;# 
   422  1E24                     	;# 
   423  1E25                     	;# 
   424  1E26                     	;# 
   425  1E27                     	;# 
   426  1E28                     	;# 
   427  1E29                     	;# 
   428  1E2A                     	;# 
   429  1E2B                     	;# 
   430  1E2C                     	;# 
   431  1E2D                     	;# 
   432  1E2E                     	;# 
   433  1E2F                     	;# 
   434  1E30                     	;# 
   435  1E31                     	;# 
   436  1E32                     	;# 
   437  1E33                     	;# 
   438  1E34                     	;# 
   439  1E35                     	;# 
   440  1E36                     	;# 
   441  1E37                     	;# 
   442  1E8F                     	;# 
   443  1E90                     	;# 
   444  1E91                     	;# 
   445  1E92                     	;# 
   446  1E93                     	;# 
   447  1E94                     	;# 
   448  1E95                     	;# 
   449  1E96                     	;# 
   450  1E97                     	;# 
   451  1E9C                     	;# 
   452  1E9D                     	;# 
   453  1E9E                     	;# 
   454  1EA1                     	;# 
   455  1EA2                     	;# 
   456  1EA3                     	;# 
   457  1EA4                     	;# 
   458  1EA9                     	;# 
   459  1EAA                     	;# 
   460  1EB1                     	;# 
   461  1EB2                     	;# 
   462  1EB8                     	;# 
   463  1EB9                     	;# 
   464  1EBA                     	;# 
   465  1EBB                     	;# 
   466  1EBC                     	;# 
   467  1EBD                     	;# 
   468  1EBE                     	;# 
   469  1EC3                     	;# 
   470  1EC5                     	;# 
   471  1EC6                     	;# 
   472  1EC7                     	;# 
   473  1EC8                     	;# 
   474  1EC9                     	;# 
   475  1ECA                     	;# 
   476  1ECB                     	;# 
   477  1ECB                     	;# 
   478  1ECB                     	;# 
   479  1ECC                     	;# 
   480  1ECC                     	;# 
   481  1ECC                     	;# 
   482  1F10                     	;# 
   483  1F11                     	;# 
   484  1F12                     	;# 
   485  1F14                     	;# 
   486  1F15                     	;# 
   487  1F1C                     	;# 
   488  1F1D                     	;# 
   489  1F1E                     	;# 
   490  1F1F                     	;# 
   491  1F20                     	;# 
   492  1F21                     	;# 
   493  1F22                     	;# 
   494  1F23                     	;# 
   495  1F24                     	;# 
   496  1F25                     	;# 
   497  1F26                     	;# 
   498  1F27                     	;# 
   499  1F38                     	;# 
   500  1F39                     	;# 
   501  1F3A                     	;# 
   502  1F3B                     	;# 
   503  1F3C                     	;# 
   504  1F3D                     	;# 
   505  1F3E                     	;# 
   506  1F3F                     	;# 
   507  1F43                     	;# 
   508  1F44                     	;# 
   509  1F45                     	;# 
   510  1F46                     	;# 
   511  1F47                     	;# 
   512  1F48                     	;# 
   513  1F49                     	;# 
   514  1F4A                     	;# 
   515  1F4E                     	;# 
   516  1F4F                     	;# 
   517  1F50                     	;# 
   518  1F51                     	;# 
   519  1F52                     	;# 
   520  1F53                     	;# 
   521  1F54                     	;# 
   522  1F55                     	;# 
   523  1FE4                     	;# 
   524  1FE5                     	;# 
   525  1FE6                     	;# 
   526  1FE7                     	;# 
   527  1FE8                     	;# 
   528  1FE8                     	;# 
   529  1FE9                     	;# 
   530  1FEA                     	;# 
   531  1FEB                     	;# 
   532  1FED                     	;# 
   533  1FEE                     	;# 
   534  1FEF                     	;# 
   535  0000                     	;# 
   536  0001                     	;# 
   537  0002                     	;# 
   538  0003                     	;# 
   539  0004                     	;# 
   540  0005                     	;# 
   541  0006                     	;# 
   542  0007                     	;# 
   543  0008                     	;# 
   544  0009                     	;# 
   545  000A                     	;# 
   546  000B                     	;# 
   547  000C                     	;# 
   548  000D                     	;# 
   549  000E                     	;# 
   550  0012                     	;# 
   551  0013                     	;# 
   552  0014                     	;# 
   553  0018                     	;# 
   554  0019                     	;# 
   555  001A                     	;# 
   556  008C                     	;# 
   557  008C                     	;# 
   558  008D                     	;# 
   559  008E                     	;# 
   560  008E                     	;# 
   561  008F                     	;# 
   562  0090                     	;# 
   563  0090                     	;# 
   564  0091                     	;# 
   565  0092                     	;# 
   566  0092                     	;# 
   567  0093                     	;# 
   568  0094                     	;# 
   569  0094                     	;# 
   570  0095                     	;# 
   571  0096                     	;# 
   572  0096                     	;# 
   573  0097                     	;# 
   574  0098                     	;# 
   575  0099                     	;# 
   576  009A                     	;# 
   577  009B                     	;# 
   578  009B                     	;# 
   579  009C                     	;# 
   580  009D                     	;# 
   581  009D                     	;# 
   582  009E                     	;# 
   583  009F                     	;# 
   584  010C                     	;# 
   585  010C                     	;# 
   586  010D                     	;# 
   587  010E                     	;# 
   588  010F                     	;# 
   589  010F                     	;# 
   590  0110                     	;# 
   591  0111                     	;# 
   592  0112                     	;# 
   593  0113                     	;# 
   594  0114                     	;# 
   595  0115                     	;# 
   596  0116                     	;# 
   597  0117                     	;# 
   598  0118                     	;# 
   599  0119                     	;# 
   600  0119                     	;# 
   601  0119                     	;# 
   602  011A                     	;# 
   603  011A                     	;# 
   604  011A                     	;# 
   605  011B                     	;# 
   606  011B                     	;# 
   607  011B                     	;# 
   608  011B                     	;# 
   609  011B                     	;# 
   610  011C                     	;# 
   611  011C                     	;# 
   612  011C                     	;# 
   613  011D                     	;# 
   614  011D                     	;# 
   615  011D                     	;# 
   616  011E                     	;# 
   617  011E                     	;# 
   618  011E                     	;# 
   619  011F                     	;# 
   620  011F                     	;# 
   621  011F                     	;# 
   622  011F                     	;# 
   623  011F                     	;# 
   624  018C                     	;# 
   625  018D                     	;# 
   626  018E                     	;# 
   627  018F                     	;# 
   628  0190                     	;# 
   629  0191                     	;# 
   630  0192                     	;# 
   631  0196                     	;# 
   632  0197                     	;# 
   633  0198                     	;# 
   634  0199                     	;# 
   635  019A                     	;# 
   636  019B                     	;# 
   637  019C                     	;# 
   638  020C                     	;# 
   639  020D                     	;# 
   640  020E                     	;# 
   641  020E                     	;# 
   642  020F                     	;# 
   643  020F                     	;# 
   644  0210                     	;# 
   645  0210                     	;# 
   646  0211                     	;# 
   647  0211                     	;# 
   648  0212                     	;# 
   649  0213                     	;# 
   650  0214                     	;# 
   651  0214                     	;# 
   652  0215                     	;# 
   653  0215                     	;# 
   654  0216                     	;# 
   655  0216                     	;# 
   656  0217                     	;# 
   657  0217                     	;# 
   658  0218                     	;# 
   659  0219                     	;# 
   660  021A                     	;# 
   661  021A                     	;# 
   662  021B                     	;# 
   663  021B                     	;# 
   664  021C                     	;# 
   665  021C                     	;# 
   666  021D                     	;# 
   667  021D                     	;# 
   668  021E                     	;# 
   669  021F                     	;# 
   670  028C                     	;# 
   671  028C                     	;# 
   672  028D                     	;# 
   673  028D                     	;# 
   674  028E                     	;# 
   675  028F                     	;# 
   676  0290                     	;# 
   677  0291                     	;# 
   678  0292                     	;# 
   679  0292                     	;# 
   680  0293                     	;# 
   681  0293                     	;# 
   682  0294                     	;# 
   683  0295                     	;# 
   684  0296                     	;# 
   685  0297                     	;# 
   686  0298                     	;# 
   687  0298                     	;# 
   688  0299                     	;# 
   689  0299                     	;# 
   690  029A                     	;# 
   691  029B                     	;# 
   692  029C                     	;# 
   693  029D                     	;# 
   694  029F                     	;# 
   695  030C                     	;# 
   696  030C                     	;# 
   697  030D                     	;# 
   698  030E                     	;# 
   699  030F                     	;# 
   700  0310                     	;# 
   701  0310                     	;# 
   702  0311                     	;# 
   703  0312                     	;# 
   704  0313                     	;# 
   705  0314                     	;# 
   706  0314                     	;# 
   707  0315                     	;# 
   708  0316                     	;# 
   709  0317                     	;# 
   710  0318                     	;# 
   711  0318                     	;# 
   712  0319                     	;# 
   713  031A                     	;# 
   714  031B                     	;# 
   715  038C                     	;# 
   716  038C                     	;# 
   717  038D                     	;# 
   718  038E                     	;# 
   719  0390                     	;# 
   720  0390                     	;# 
   721  0391                     	;# 
   722  0392                     	;# 
   723  048C                     	;# 
   724  048C                     	;# 
   725  048D                     	;# 
   726  048E                     	;# 
   727  048F                     	;# 
   728  048F                     	;# 
   729  0490                     	;# 
   730  0491                     	;# 
   731  0492                     	;# 
   732  0492                     	;# 
   733  0493                     	;# 
   734  0494                     	;# 
   735  0495                     	;# 
   736  0495                     	;# 
   737  0496                     	;# 
   738  0497                     	;# 
   739  0498                     	;# 
   740  0499                     	;# 
   741  049A                     	;# 
   742  049B                     	;# 
   743  049C                     	;# 
   744  049D                     	;# 
   745  058C                     	;# 
   746  058C                     	;# 
   747  058D                     	;# 
   748  058E                     	;# 
   749  058F                     	;# 
   750  058F                     	;# 
   751  0590                     	;# 
   752  0591                     	;# 
   753  0592                     	;# 
   754  0593                     	;# 
   755  059C                     	;# 
   756  059C                     	;# 
   757  059D                     	;# 
   758  059D                     	;# 
   759  059E                     	;# 
   760  059F                     	;# 
   761  060C                     	;# 
   762  060C                     	;# 
   763  060D                     	;# 
   764  060D                     	;# 
   765  060E                     	;# 
   766  060F                     	;# 
   767  0610                     	;# 
   768  0611                     	;# 
   769  0612                     	;# 
   770  0613                     	;# 
   771  0614                     	;# 
   772  0616                     	;# 
   773  0616                     	;# 
   774  0617                     	;# 
   775  0617                     	;# 
   776  0618                     	;# 
   777  0619                     	;# 
   778  061A                     	;# 
   779  061B                     	;# 
   780  061C                     	;# 
   781  061D                     	;# 
   782  061E                     	;# 
   783  070C                     	;# 
   784  070D                     	;# 
   785  070E                     	;# 
   786  070F                     	;# 
   787  0710                     	;# 
   788  0711                     	;# 
   789  0712                     	;# 
   790  0713                     	;# 
   791  0714                     	;# 
   792  0716                     	;# 
   793  0717                     	;# 
   794  0718                     	;# 
   795  0719                     	;# 
   796  071A                     	;# 
   797  071B                     	;# 
   798  071C                     	;# 
   799  071D                     	;# 
   800  071E                     	;# 
   801  0796                     	;# 
   802  0797                     	;# 
   803  0798                     	;# 
   804  0799                     	;# 
   805  079A                     	;# 
   806  079B                     	;# 
   807  079C                     	;# 
   808  079D                     	;# 
   809  080C                     	;# 
   810  080D                     	;# 
   811  080E                     	;# 
   812  080F                     	;# 
   813  0810                     	;# 
   814  0811                     	;# 
   815  0812                     	;# 
   816  0813                     	;# 
   817  0814                     	;# 
   818  081A                     	;# 
   819  081A                     	;# 
   820  081B                     	;# 
   821  081C                     	;# 
   822  081C                     	;# 
   823  081D                     	;# 
   824  081E                     	;# 
   825  081F                     	;# 
   826  088C                     	;# 
   827  088D                     	;# 
   828  088E                     	;# 
   829  088F                     	;# 
   830  0890                     	;# 
   831  0891                     	;# 
   832  0892                     	;# 
   833  0893                     	;# 
   834  0895                     	;# 
   835  0896                     	;# 
   836  0897                     	;# 
   837  0898                     	;# 
   838  0899                     	;# 
   839  089A                     	;# 
   840  089B                     	;# 
   841  090C                     	;# 
   842  090E                     	;# 
   843  090F                     	;# 
   844  091F                     	;# 
   845  098F                     	;# 
   846  098F                     	;# 
   847  0990                     	;# 
   848  0991                     	;# 
   849  0992                     	;# 
   850  0993                     	;# 
   851  0994                     	;# 
   852  0995                     	;# 
   853  0996                     	;# 
   854  0997                     	;# 
   855  1E0F                     	;# 
   856  1E10                     	;# 
   857  1E11                     	;# 
   858  1E12                     	;# 
   859  1E13                     	;# 
   860  1E14                     	;# 
   861  1E15                     	;# 
   862  1E16                     	;# 
   863  1E17                     	;# 
   864  1E18                     	;# 
   865  1E19                     	;# 
   866  1E1A                     	;# 
   867  1E1B                     	;# 
   868  1E1C                     	;# 
   869  1E1D                     	;# 
   870  1E1E                     	;# 
   871  1E1F                     	;# 
   872  1E20                     	;# 
   873  1E21                     	;# 
   874  1E22                     	;# 
   875  1E23                     	;# 
   876  1E24                     	;# 
   877  1E25                     	;# 
   878  1E26                     	;# 
   879  1E27                     	;# 
   880  1E28                     	;# 
   881  1E29                     	;# 
   882  1E2A                     	;# 
   883  1E2B                     	;# 
   884  1E2C                     	;# 
   885  1E2D                     	;# 
   886  1E2E                     	;# 
   887  1E2F                     	;# 
   888  1E30                     	;# 
   889  1E31                     	;# 
   890  1E32                     	;# 
   891  1E33                     	;# 
   892  1E34                     	;# 
   893  1E35                     	;# 
   894  1E36                     	;# 
   895  1E37                     	;# 
   896  1E8F                     	;# 
   897  1E90                     	;# 
   898  1E91                     	;# 
   899  1E92                     	;# 
   900  1E93                     	;# 
   901  1E94                     	;# 
   902  1E95                     	;# 
   903  1E96                     	;# 
   904  1E97                     	;# 
   905  1E9C                     	;# 
   906  1E9D                     	;# 
   907  1E9E                     	;# 
   908  1EA1                     	;# 
   909  1EA2                     	;# 
   910  1EA3                     	;# 
   911  1EA4                     	;# 
   912  1EA9                     	;# 
   913  1EAA                     	;# 
   914  1EB1                     	;# 
   915  1EB2                     	;# 
   916  1EB8                     	;# 
   917  1EB9                     	;# 
   918  1EBA                     	;# 
   919  1EBB                     	;# 
   920  1EBC                     	;# 
   921  1EBD                     	;# 
   922  1EBE                     	;# 
   923  1EC3                     	;# 
   924  1EC5                     	;# 
   925  1EC6                     	;# 
   926  1EC7                     	;# 
   927  1EC8                     	;# 
   928  1EC9                     	;# 
   929  1ECA                     	;# 
   930  1ECB                     	;# 
   931  1ECB                     	;# 
   932  1ECB                     	;# 
   933  1ECC                     	;# 
   934  1ECC                     	;# 
   935  1ECC                     	;# 
   936  1F10                     	;# 
   937  1F11                     	;# 
   938  1F12                     	;# 
   939  1F14                     	;# 
   940  1F15                     	;# 
   941  1F1C                     	;# 
   942  1F1D                     	;# 
   943  1F1E                     	;# 
   944  1F1F                     	;# 
   945  1F20                     	;# 
   946  1F21                     	;# 
   947  1F22                     	;# 
   948  1F23                     	;# 
   949  1F24                     	;# 
   950  1F25                     	;# 
   951  1F26                     	;# 
   952  1F27                     	;# 
   953  1F38                     	;# 
   954  1F39                     	;# 
   955  1F3A                     	;# 
   956  1F3B                     	;# 
   957  1F3C                     	;# 
   958  1F3D                     	;# 
   959  1F3E                     	;# 
   960  1F3F                     	;# 
   961  1F43                     	;# 
   962  1F44                     	;# 
   963  1F45                     	;# 
   964  1F46                     	;# 
   965  1F47                     	;# 
   966  1F48                     	;# 
   967  1F49                     	;# 
   968  1F4A                     	;# 
   969  1F4E                     	;# 
   970  1F4F                     	;# 
   971  1F50                     	;# 
   972  1F51                     	;# 
   973  1F52                     	;# 
   974  1F53                     	;# 
   975  1F54                     	;# 
   976  1F55                     	;# 
   977  1FE4                     	;# 
   978  1FE5                     	;# 
   979  1FE6                     	;# 
   980  1FE7                     	;# 
   981  1FE8                     	;# 
   982  1FE8                     	;# 
   983  1FE9                     	;# 
   984  1FEA                     	;# 
   985  1FEB                     	;# 
   986  1FED                     	;# 
   987  1FEE                     	;# 
   988  1FEF                     	;# 
   989  0000                     	;# 
   990  0001                     	;# 
   991  0002                     	;# 
   992  0003                     	;# 
   993  0004                     	;# 
   994  0005                     	;# 
   995  0006                     	;# 
   996  0007                     	;# 
   997  0008                     	;# 
   998  0009                     	;# 
   999  000A                     	;# 
  1000  000B                     	;# 
  1001  000C                     	;# 
  1002  000D                     	;# 
  1003  000E                     	;# 
  1004  0012                     	;# 
  1005  0013                     	;# 
  1006  0014                     	;# 
  1007  0018                     	;# 
  1008  0019                     	;# 
  1009  001A                     	;# 
  1010  008C                     	;# 
  1011  008C                     	;# 
  1012  008D                     	;# 
  1013  008E                     	;# 
  1014  008E                     	;# 
  1015  008F                     	;# 
  1016  0090                     	;# 
  1017  0090                     	;# 
  1018  0091                     	;# 
  1019  0092                     	;# 
  1020  0092                     	;# 
  1021  0093                     	;# 
  1022  0094                     	;# 
  1023  0094                     	;# 
  1024  0095                     	;# 
  1025  0096                     	;# 
  1026  0096                     	;# 
  1027  0097                     	;# 
  1028  0098                     	;# 
  1029  0099                     	;# 
  1030  009A                     	;# 
  1031  009B                     	;# 
  1032  009B                     	;# 
  1033  009C                     	;# 
  1034  009D                     	;# 
  1035  009D                     	;# 
  1036  009E                     	;# 
  1037  009F                     	;# 
  1038  010C                     	;# 
  1039  010C                     	;# 
  1040  010D                     	;# 
  1041  010E                     	;# 
  1042  010F                     	;# 
  1043  010F                     	;# 
  1044  0110                     	;# 
  1045  0111                     	;# 
  1046  0112                     	;# 
  1047  0113                     	;# 
  1048  0114                     	;# 
  1049  0115                     	;# 
  1050  0116                     	;# 
  1051  0117                     	;# 
  1052  0118                     	;# 
  1053  0119                     	;# 
  1054  0119                     	;# 
  1055  0119                     	;# 
  1056  011A                     	;# 
  1057  011A                     	;# 
  1058  011A                     	;# 
  1059  011B                     	;# 
  1060  011B                     	;# 
  1061  011B                     	;# 
  1062  011B                     	;# 
  1063  011B                     	;# 
  1064  011C                     	;# 
  1065  011C                     	;# 
  1066  011C                     	;# 
  1067  011D                     	;# 
  1068  011D                     	;# 
  1069  011D                     	;# 
  1070  011E                     	;# 
  1071  011E                     	;# 
  1072  011E                     	;# 
  1073  011F                     	;# 
  1074  011F                     	;# 
  1075  011F                     	;# 
  1076  011F                     	;# 
  1077  011F                     	;# 
  1078  018C                     	;# 
  1079  018D                     	;# 
  1080  018E                     	;# 
  1081  018F                     	;# 
  1082  0190                     	;# 
  1083  0191                     	;# 
  1084  0192                     	;# 
  1085  0196                     	;# 
  1086  0197                     	;# 
  1087  0198                     	;# 
  1088  0199                     	;# 
  1089  019A                     	;# 
  1090  019B                     	;# 
  1091  019C                     	;# 
  1092  020C                     	;# 
  1093  020D                     	;# 
  1094  020E                     	;# 
  1095  020E                     	;# 
  1096  020F                     	;# 
  1097  020F                     	;# 
  1098  0210                     	;# 
  1099  0210                     	;# 
  1100  0211                     	;# 
  1101  0211                     	;# 
  1102  0212                     	;# 
  1103  0213                     	;# 
  1104  0214                     	;# 
  1105  0214                     	;# 
  1106  0215                     	;# 
  1107  0215                     	;# 
  1108  0216                     	;# 
  1109  0216                     	;# 
  1110  0217                     	;# 
  1111  0217                     	;# 
  1112  0218                     	;# 
  1113  0219                     	;# 
  1114  021A                     	;# 
  1115  021A                     	;# 
  1116  021B                     	;# 
  1117  021B                     	;# 
  1118  021C                     	;# 
  1119  021C                     	;# 
  1120  021D                     	;# 
  1121  021D                     	;# 
  1122  021E                     	;# 
  1123  021F                     	;# 
  1124  028C                     	;# 
  1125  028C                     	;# 
  1126  028D                     	;# 
  1127  028D                     	;# 
  1128  028E                     	;# 
  1129  028F                     	;# 
  1130  0290                     	;# 
  1131  0291                     	;# 
  1132  0292                     	;# 
  1133  0292                     	;# 
  1134  0293                     	;# 
  1135  0293                     	;# 
  1136  0294                     	;# 
  1137  0295                     	;# 
  1138  0296                     	;# 
  1139  0297                     	;# 
  1140  0298                     	;# 
  1141  0298                     	;# 
  1142  0299                     	;# 
  1143  0299                     	;# 
  1144  029A                     	;# 
  1145  029B                     	;# 
  1146  029C                     	;# 
  1147  029D                     	;# 
  1148  029F                     	;# 
  1149  030C                     	;# 
  1150  030C                     	;# 
  1151  030D                     	;# 
  1152  030E                     	;# 
  1153  030F                     	;# 
  1154  0310                     	;# 
  1155  0310                     	;# 
  1156  0311                     	;# 
  1157  0312                     	;# 
  1158  0313                     	;# 
  1159  0314                     	;# 
  1160  0314                     	;# 
  1161  0315                     	;# 
  1162  0316                     	;# 
  1163  0317                     	;# 
  1164  0318                     	;# 
  1165  0318                     	;# 
  1166  0319                     	;# 
  1167  031A                     	;# 
  1168  031B                     	;# 
  1169  038C                     	;# 
  1170  038C                     	;# 
  1171  038D                     	;# 
  1172  038E                     	;# 
  1173  0390                     	;# 
  1174  0390                     	;# 
  1175  0391                     	;# 
  1176  0392                     	;# 
  1177  048C                     	;# 
  1178  048C                     	;# 
  1179  048D                     	;# 
  1180  048E                     	;# 
  1181  048F                     	;# 
  1182  048F                     	;# 
  1183  0490                     	;# 
  1184  0491                     	;# 
  1185  0492                     	;# 
  1186  0492                     	;# 
  1187  0493                     	;# 
  1188  0494                     	;# 
  1189  0495                     	;# 
  1190  0495                     	;# 
  1191  0496                     	;# 
  1192  0497                     	;# 
  1193  0498                     	;# 
  1194  0499                     	;# 
  1195  049A                     	;# 
  1196  049B                     	;# 
  1197  049C                     	;# 
  1198  049D                     	;# 
  1199  058C                     	;# 
  1200  058C                     	;# 
  1201  058D                     	;# 
  1202  058E                     	;# 
  1203  058F                     	;# 
  1204  058F                     	;# 
  1205  0590                     	;# 
  1206  0591                     	;# 
  1207  0592                     	;# 
  1208  0593                     	;# 
  1209  059C                     	;# 
  1210  059C                     	;# 
  1211  059D                     	;# 
  1212  059D                     	;# 
  1213  059E                     	;# 
  1214  059F                     	;# 
  1215  060C                     	;# 
  1216  060C                     	;# 
  1217  060D                     	;# 
  1218  060D                     	;# 
  1219  060E                     	;# 
  1220  060F                     	;# 
  1221  0610                     	;# 
  1222  0611                     	;# 
  1223  0612                     	;# 
  1224  0613                     	;# 
  1225  0614                     	;# 
  1226  0616                     	;# 
  1227  0616                     	;# 
  1228  0617                     	;# 
  1229  0617                     	;# 
  1230  0618                     	;# 
  1231  0619                     	;# 
  1232  061A                     	;# 
  1233  061B                     	;# 
  1234  061C                     	;# 
  1235  061D                     	;# 
  1236  061E                     	;# 
  1237  070C                     	;# 
  1238  070D                     	;# 
  1239  070E                     	;# 
  1240  070F                     	;# 
  1241  0710                     	;# 
  1242  0711                     	;# 
  1243  0712                     	;# 
  1244  0713                     	;# 
  1245  0714                     	;# 
  1246  0716                     	;# 
  1247  0717                     	;# 
  1248  0718                     	;# 
  1249  0719                     	;# 
  1250  071A                     	;# 
  1251  071B                     	;# 
  1252  071C                     	;# 
  1253  071D                     	;# 
  1254  071E                     	;# 
  1255  0796                     	;# 
  1256  0797                     	;# 
  1257  0798                     	;# 
  1258  0799                     	;# 
  1259  079A                     	;# 
  1260  079B                     	;# 
  1261  079C                     	;# 
  1262  079D                     	;# 
  1263  080C                     	;# 
  1264  080D                     	;# 
  1265  080E                     	;# 
  1266  080F                     	;# 
  1267  0810                     	;# 
  1268  0811                     	;# 
  1269  0812                     	;# 
  1270  0813                     	;# 
  1271  0814                     	;# 
  1272  081A                     	;# 
  1273  081A                     	;# 
  1274  081B                     	;# 
  1275  081C                     	;# 
  1276  081C                     	;# 
  1277  081D                     	;# 
  1278  081E                     	;# 
  1279  081F                     	;# 
  1280  088C                     	;# 
  1281  088D                     	;# 
  1282  088E                     	;# 
  1283  088F                     	;# 
  1284  0890                     	;# 
  1285  0891                     	;# 
  1286  0892                     	;# 
  1287  0893                     	;# 
  1288  0895                     	;# 
  1289  0896                     	;# 
  1290  0897                     	;# 
  1291  0898                     	;# 
  1292  0899                     	;# 
  1293  089A                     	;# 
  1294  089B                     	;# 
  1295  090C                     	;# 
  1296  090E                     	;# 
  1297  090F                     	;# 
  1298  091F                     	;# 
  1299  098F                     	;# 
  1300  098F                     	;# 
  1301  0990                     	;# 
  1302  0991                     	;# 
  1303  0992                     	;# 
  1304  0993                     	;# 
  1305  0994                     	;# 
  1306  0995                     	;# 
  1307  0996                     	;# 
  1308  0997                     	;# 
  1309  1E0F                     	;# 
  1310  1E10                     	;# 
  1311  1E11                     	;# 
  1312  1E12                     	;# 
  1313  1E13                     	;# 
  1314  1E14                     	;# 
  1315  1E15                     	;# 
  1316  1E16                     	;# 
  1317  1E17                     	;# 
  1318  1E18                     	;# 
  1319  1E19                     	;# 
  1320  1E1A                     	;# 
  1321  1E1B                     	;# 
  1322  1E1C                     	;# 
  1323  1E1D                     	;# 
  1324  1E1E                     	;# 
  1325  1E1F                     	;# 
  1326  1E20                     	;# 
  1327  1E21                     	;# 
  1328  1E22                     	;# 
  1329  1E23                     	;# 
  1330  1E24                     	;# 
  1331  1E25                     	;# 
  1332  1E26                     	;# 
  1333  1E27                     	;# 
  1334  1E28                     	;# 
  1335  1E29                     	;# 
  1336  1E2A                     	;# 
  1337  1E2B                     	;# 
  1338  1E2C                     	;# 
  1339  1E2D                     	;# 
  1340  1E2E                     	;# 
  1341  1E2F                     	;# 
  1342  1E30                     	;# 
  1343  1E31                     	;# 
  1344  1E32                     	;# 
  1345  1E33                     	;# 
  1346  1E34                     	;# 
  1347  1E35                     	;# 
  1348  1E36                     	;# 
  1349  1E37                     	;# 
  1350  1E8F                     	;# 
  1351  1E90                     	;# 
  1352  1E91                     	;# 
  1353  1E92                     	;# 
  1354  1E93                     	;# 
  1355  1E94                     	;# 
  1356  1E95                     	;# 
  1357  1E96                     	;# 
  1358  1E97                     	;# 
  1359  1E9C                     	;# 
  1360  1E9D                     	;# 
  1361  1E9E                     	;# 
  1362  1EA1                     	;# 
  1363  1EA2                     	;# 
  1364  1EA3                     	;# 
  1365  1EA4                     	;# 
  1366  1EA9                     	;# 
  1367  1EAA                     	;# 
  1368  1EB1                     	;# 
  1369  1EB2                     	;# 
  1370  1EB8                     	;# 
  1371  1EB9                     	;# 
  1372  1EBA                     	;# 
  1373  1EBB                     	;# 
  1374  1EBC                     	;# 
  1375  1EBD                     	;# 
  1376  1EBE                     	;# 
  1377  1EC3                     	;# 
  1378  1EC5                     	;# 
  1379  1EC6                     	;# 
  1380  1EC7                     	;# 
  1381  1EC8                     	;# 
  1382  1EC9                     	;# 
  1383  1ECA                     	;# 
  1384  1ECB                     	;# 
  1385  1ECB                     	;# 
  1386  1ECB                     	;# 
  1387  1ECC                     	;# 
  1388  1ECC                     	;# 
  1389  1ECC                     	;# 
  1390  1F10                     	;# 
  1391  1F11                     	;# 
  1392  1F12                     	;# 
  1393  1F14                     	;# 
  1394  1F15                     	;# 
  1395  1F1C                     	;# 
  1396  1F1D                     	;# 
  1397  1F1E                     	;# 
  1398  1F1F                     	;# 
  1399  1F20                     	;# 
  1400  1F21                     	;# 
  1401  1F22                     	;# 
  1402  1F23                     	;# 
  1403  1F24                     	;# 
  1404  1F25                     	;# 
  1405  1F26                     	;# 
  1406  1F27                     	;# 
  1407  1F38                     	;# 
  1408  1F39                     	;# 
  1409  1F3A                     	;# 
  1410  1F3B                     	;# 
  1411  1F3C                     	;# 
  1412  1F3D                     	;# 
  1413  1F3E                     	;# 
  1414  1F3F                     	;# 
  1415  1F43                     	;# 
  1416  1F44                     	;# 
  1417  1F45                     	;# 
  1418  1F46                     	;# 
  1419  1F47                     	;# 
  1420  1F48                     	;# 
  1421  1F49                     	;# 
  1422  1F4A                     	;# 
  1423  1F4E                     	;# 
  1424  1F4F                     	;# 
  1425  1F50                     	;# 
  1426  1F51                     	;# 
  1427  1F52                     	;# 
  1428  1F53                     	;# 
  1429  1F54                     	;# 
  1430  1F55                     	;# 
  1431  1FE4                     	;# 
  1432  1FE5                     	;# 
  1433  1FE6                     	;# 
  1434  1FE7                     	;# 
  1435  1FE8                     	;# 
  1436  1FE8                     	;# 
  1437  1FE9                     	;# 
  1438  1FEA                     	;# 
  1439  1FEB                     	;# 
  1440  1FED                     	;# 
  1441  1FEE                     	;# 
  1442  1FEF                     	;# 
  1443  0000                     	;# 
  1444  0001                     	;# 
  1445  0002                     	;# 
  1446  0003                     	;# 
  1447  0004                     	;# 
  1448  0005                     	;# 
  1449  0006                     	;# 
  1450  0007                     	;# 
  1451  0008                     	;# 
  1452  0009                     	;# 
  1453  000A                     	;# 
  1454  000B                     	;# 
  1455  000C                     	;# 
  1456  000D                     	;# 
  1457  000E                     	;# 
  1458  0012                     	;# 
  1459  0013                     	;# 
  1460  0014                     	;# 
  1461  0018                     	;# 
  1462  0019                     	;# 
  1463  001A                     	;# 
  1464  008C                     	;# 
  1465  008C                     	;# 
  1466  008D                     	;# 
  1467  008E                     	;# 
  1468  008E                     	;# 
  1469  008F                     	;# 
  1470  0090                     	;# 
  1471  0090                     	;# 
  1472  0091                     	;# 
  1473  0092                     	;# 
  1474  0092                     	;# 
  1475  0093                     	;# 
  1476  0094                     	;# 
  1477  0094                     	;# 
  1478  0095                     	;# 
  1479  0096                     	;# 
  1480  0096                     	;# 
  1481  0097                     	;# 
  1482  0098                     	;# 
  1483  0099                     	;# 
  1484  009A                     	;# 
  1485  009B                     	;# 
  1486  009B                     	;# 
  1487  009C                     	;# 
  1488  009D                     	;# 
  1489  009D                     	;# 
  1490  009E                     	;# 
  1491  009F                     	;# 
  1492  010C                     	;# 
  1493  010C                     	;# 
  1494  010D                     	;# 
  1495  010E                     	;# 
  1496  010F                     	;# 
  1497  010F                     	;# 
  1498  0110                     	;# 
  1499  0111                     	;# 
  1500  0112                     	;# 
  1501  0113                     	;# 
  1502  0114                     	;# 
  1503  0115                     	;# 
  1504  0116                     	;# 
  1505  0117                     	;# 
  1506  0118                     	;# 
  1507  0119                     	;# 
  1508  0119                     	;# 
  1509  0119                     	;# 
  1510  011A                     	;# 
  1511  011A                     	;# 
  1512  011A                     	;# 
  1513  011B                     	;# 
  1514  011B                     	;# 
  1515  011B                     	;# 
  1516  011B                     	;# 
  1517  011B                     	;# 
  1518  011C                     	;# 
  1519  011C                     	;# 
  1520  011C                     	;# 
  1521  011D                     	;# 
  1522  011D                     	;# 
  1523  011D                     	;# 
  1524  011E                     	;# 
  1525  011E                     	;# 
  1526  011E                     	;# 
  1527  011F                     	;# 
  1528  011F                     	;# 
  1529  011F                     	;# 
  1530  011F                     	;# 
  1531  011F                     	;# 
  1532  018C                     	;# 
  1533  018D                     	;# 
  1534  018E                     	;# 
  1535  018F                     	;# 
  1536  0190                     	;# 
  1537  0191                     	;# 
  1538  0192                     	;# 
  1539  0196                     	;# 
  1540  0197                     	;# 
  1541  0198                     	;# 
  1542  0199                     	;# 
  1543  019A                     	;# 
  1544  019B                     	;# 
  1545  019C                     	;# 
  1546  020C                     	;# 
  1547  020D                     	;# 
  1548  020E                     	;# 
  1549  020E                     	;# 
  1550  020F                     	;# 
  1551  020F                     	;# 
  1552  0210                     	;# 
  1553  0210                     	;# 
  1554  0211                     	;# 
  1555  0211                     	;# 
  1556  0212                     	;# 
  1557  0213                     	;# 
  1558  0214                     	;# 
  1559  0214                     	;# 
  1560  0215                     	;# 
  1561  0215                     	;# 
  1562  0216                     	;# 
  1563  0216                     	;# 
  1564  0217                     	;# 
  1565  0217                     	;# 
  1566  0218                     	;# 
  1567  0219                     	;# 
  1568  021A                     	;# 
  1569  021A                     	;# 
  1570  021B                     	;# 
  1571  021B                     	;# 
  1572  021C                     	;# 
  1573  021C                     	;# 
  1574  021D                     	;# 
  1575  021D                     	;# 
  1576  021E                     	;# 
  1577  021F                     	;# 
  1578  028C                     	;# 
  1579  028C                     	;# 
  1580  028D                     	;# 
  1581  028D                     	;# 
  1582  028E                     	;# 
  1583  028F                     	;# 
  1584  0290                     	;# 
  1585  0291                     	;# 
  1586  0292                     	;# 
  1587  0292                     	;# 
  1588  0293                     	;# 
  1589  0293                     	;# 
  1590  0294                     	;# 
  1591  0295                     	;# 
  1592  0296                     	;# 
  1593  0297                     	;# 
  1594  0298                     	;# 
  1595  0298                     	;# 
  1596  0299                     	;# 
  1597  0299                     	;# 
  1598  029A                     	;# 
  1599  029B                     	;# 
  1600  029C                     	;# 
  1601  029D                     	;# 
  1602  029F                     	;# 
  1603  030C                     	;# 
  1604  030C                     	;# 
  1605  030D                     	;# 
  1606  030E                     	;# 
  1607  030F                     	;# 
  1608  0310                     	;# 
  1609  0310                     	;# 
  1610  0311                     	;# 
  1611  0312                     	;# 
  1612  0313                     	;# 
  1613  0314                     	;# 
  1614  0314                     	;# 
  1615  0315                     	;# 
  1616  0316                     	;# 
  1617  0317                     	;# 
  1618  0318                     	;# 
  1619  0318                     	;# 
  1620  0319                     	;# 
  1621  031A                     	;# 
  1622  031B                     	;# 
  1623  038C                     	;# 
  1624  038C                     	;# 
  1625  038D                     	;# 
  1626  038E                     	;# 
  1627  0390                     	;# 
  1628  0390                     	;# 
  1629  0391                     	;# 
  1630  0392                     	;# 
  1631  048C                     	;# 
  1632  048C                     	;# 
  1633  048D                     	;# 
  1634  048E                     	;# 
  1635  048F                     	;# 
  1636  048F                     	;# 
  1637  0490                     	;# 
  1638  0491                     	;# 
  1639  0492                     	;# 
  1640  0492                     	;# 
  1641  0493                     	;# 
  1642  0494                     	;# 
  1643  0495                     	;# 
  1644  0495                     	;# 
  1645  0496                     	;# 
  1646  0497                     	;# 
  1647  0498                     	;# 
  1648  0499                     	;# 
  1649  049A                     	;# 
  1650  049B                     	;# 
  1651  049C                     	;# 
  1652  049D                     	;# 
  1653  058C                     	;# 
  1654  058C                     	;# 
  1655  058D                     	;# 
  1656  058E                     	;# 
  1657  058F                     	;# 
  1658  058F                     	;# 
  1659  0590                     	;# 
  1660  0591                     	;# 
  1661  0592                     	;# 
  1662  0593                     	;# 
  1663  059C                     	;# 
  1664  059C                     	;# 
  1665  059D                     	;# 
  1666  059D                     	;# 
  1667  059E                     	;# 
  1668  059F                     	;# 
  1669  060C                     	;# 
  1670  060C                     	;# 
  1671  060D                     	;# 
  1672  060D                     	;# 
  1673  060E                     	;# 
  1674  060F                     	;# 
  1675  0610                     	;# 
  1676  0611                     	;# 
  1677  0612                     	;# 
  1678  0613                     	;# 
  1679  0614                     	;# 
  1680  0616                     	;# 
  1681  0616                     	;# 
  1682  0617                     	;# 
  1683  0617                     	;# 
  1684  0618                     	;# 
  1685  0619                     	;# 
  1686  061A                     	;# 
  1687  061B                     	;# 
  1688  061C                     	;# 
  1689  061D                     	;# 
  1690  061E                     	;# 
  1691  070C                     	;# 
  1692  070D                     	;# 
  1693  070E                     	;# 
  1694  070F                     	;# 
  1695  0710                     	;# 
  1696  0711                     	;# 
  1697  0712                     	;# 
  1698  0713                     	;# 
  1699  0714                     	;# 
  1700  0716                     	;# 
  1701  0717                     	;# 
  1702  0718                     	;# 
  1703  0719                     	;# 
  1704  071A                     	;# 
  1705  071B                     	;# 
  1706  071C                     	;# 
  1707  071D                     	;# 
  1708  071E                     	;# 
  1709  0796                     	;# 
  1710  0797                     	;# 
  1711  0798                     	;# 
  1712  0799                     	;# 
  1713  079A                     	;# 
  1714  079B                     	;# 
  1715  079C                     	;# 
  1716  079D                     	;# 
  1717  080C                     	;# 
  1718  080D                     	;# 
  1719  080E                     	;# 
  1720  080F                     	;# 
  1721  0810                     	;# 
  1722  0811                     	;# 
  1723  0812                     	;# 
  1724  0813                     	;# 
  1725  0814                     	;# 
  1726  081A                     	;# 
  1727  081A                     	;# 
  1728  081B                     	;# 
  1729  081C                     	;# 
  1730  081C                     	;# 
  1731  081D                     	;# 
  1732  081E                     	;# 
  1733  081F                     	;# 
  1734  088C                     	;# 
  1735  088D                     	;# 
  1736  088E                     	;# 
  1737  088F                     	;# 
  1738  0890                     	;# 
  1739  0891                     	;# 
  1740  0892                     	;# 
  1741  0893                     	;# 
  1742  0895                     	;# 
  1743  0896                     	;# 
  1744  0897                     	;# 
  1745  0898                     	;# 
  1746  0899                     	;# 
  1747  089A                     	;# 
  1748  089B                     	;# 
  1749  090C                     	;# 
  1750  090E                     	;# 
  1751  090F                     	;# 
  1752  091F                     	;# 
  1753  098F                     	;# 
  1754  098F                     	;# 
  1755  0990                     	;# 
  1756  0991                     	;# 
  1757  0992                     	;# 
  1758  0993                     	;# 
  1759  0994                     	;# 
  1760  0995                     	;# 
  1761  0996                     	;# 
  1762  0997                     	;# 
  1763  1E0F                     	;# 
  1764  1E10                     	;# 
  1765  1E11                     	;# 
  1766  1E12                     	;# 
  1767  1E13                     	;# 
  1768  1E14                     	;# 
  1769  1E15                     	;# 
  1770  1E16                     	;# 
  1771  1E17                     	;# 
  1772  1E18                     	;# 
  1773  1E19                     	;# 
  1774  1E1A                     	;# 
  1775  1E1B                     	;# 
  1776  1E1C                     	;# 
  1777  1E1D                     	;# 
  1778  1E1E                     	;# 
  1779  1E1F                     	;# 
  1780  1E20                     	;# 
  1781  1E21                     	;# 
  1782  1E22                     	;# 
  1783  1E23                     	;# 
  1784  1E24                     	;# 
  1785  1E25                     	;# 
  1786  1E26                     	;# 
  1787  1E27                     	;# 
  1788  1E28                     	;# 
  1789  1E29                     	;# 
  1790  1E2A                     	;# 
  1791  1E2B                     	;# 
  1792  1E2C                     	;# 
  1793  1E2D                     	;# 
  1794  1E2E                     	;# 
  1795  1E2F                     	;# 
  1796  1E30                     	;# 
  1797  1E31                     	;# 
  1798  1E32                     	;# 
  1799  1E33                     	;# 
  1800  1E34                     	;# 
  1801  1E35                     	;# 
  1802  1E36                     	;# 
  1803  1E37                     	;# 
  1804  1E8F                     	;# 
  1805  1E90                     	;# 
  1806  1E91                     	;# 
  1807  1E92                     	;# 
  1808  1E93                     	;# 
  1809  1E94                     	;# 
  1810  1E95                     	;# 
  1811  1E96                     	;# 
  1812  1E97                     	;# 
  1813  1E9C                     	;# 
  1814  1E9D                     	;# 
  1815  1E9E                     	;# 
  1816  1EA1                     	;# 
  1817  1EA2                     	;# 
  1818  1EA3                     	;# 
  1819  1EA4                     	;# 
  1820  1EA9                     	;# 
  1821  1EAA                     	;# 
  1822  1EB1                     	;# 
  1823  1EB2                     	;# 
  1824  1EB8                     	;# 
  1825  1EB9                     	;# 
  1826  1EBA                     	;# 
  1827  1EBB                     	;# 
  1828  1EBC                     	;# 
  1829  1EBD                     	;# 
  1830  1EBE                     	;# 
  1831  1EC3                     	;# 
  1832  1EC5                     	;# 
  1833  1EC6                     	;# 
  1834  1EC7                     	;# 
  1835  1EC8                     	;# 
  1836  1EC9                     	;# 
  1837  1ECA                     	;# 
  1838  1ECB                     	;# 
  1839  1ECB                     	;# 
  1840  1ECB                     	;# 
  1841  1ECC                     	;# 
  1842  1ECC                     	;# 
  1843  1ECC                     	;# 
  1844  1F10                     	;# 
  1845  1F11                     	;# 
  1846  1F12                     	;# 
  1847  1F14                     	;# 
  1848  1F15                     	;# 
  1849  1F1C                     	;# 
  1850  1F1D                     	;# 
  1851  1F1E                     	;# 
  1852  1F1F                     	;# 
  1853  1F20                     	;# 
  1854  1F21                     	;# 
  1855  1F22                     	;# 
  1856  1F23                     	;# 
  1857  1F24                     	;# 
  1858  1F25                     	;# 
  1859  1F26                     	;# 
  1860  1F27                     	;# 
  1861  1F38                     	;# 
  1862  1F39                     	;# 
  1863  1F3A                     	;# 
  1864  1F3B                     	;# 
  1865  1F3C                     	;# 
  1866  1F3D                     	;# 
  1867  1F3E                     	;# 
  1868  1F3F                     	;# 
  1869  1F43                     	;# 
  1870  1F44                     	;# 
  1871  1F45                     	;# 
  1872  1F46                     	;# 
  1873  1F47                     	;# 
  1874  1F48                     	;# 
  1875  1F49                     	;# 
  1876  1F4A                     	;# 
  1877  1F4E                     	;# 
  1878  1F4F                     	;# 
  1879  1F50                     	;# 
  1880  1F51                     	;# 
  1881  1F52                     	;# 
  1882  1F53                     	;# 
  1883  1F54                     	;# 
  1884  1F55                     	;# 
  1885  1FE4                     	;# 
  1886  1FE5                     	;# 
  1887  1FE6                     	;# 
  1888  1FE7                     	;# 
  1889  1FE8                     	;# 
  1890  1FE8                     	;# 
  1891  1FE9                     	;# 
  1892  1FEA                     	;# 
  1893  1FEB                     	;# 
  1894  1FED                     	;# 
  1895  1FEE                     	;# 
  1896  1FEF                     	;# 
  1897  0000                     	;# 
  1898  0001                     	;# 
  1899  0002                     	;# 
  1900  0003                     	;# 
  1901  0004                     	;# 
  1902  0005                     	;# 
  1903  0006                     	;# 
  1904  0007                     	;# 
  1905  0008                     	;# 
  1906  0009                     	;# 
  1907  000A                     	;# 
  1908  000B                     	;# 
  1909  000C                     	;# 
  1910  000D                     	;# 
  1911  000E                     	;# 
  1912  0012                     	;# 
  1913  0013                     	;# 
  1914  0014                     	;# 
  1915  0018                     	;# 
  1916  0019                     	;# 
  1917  001A                     	;# 
  1918  008C                     	;# 
  1919  008C                     	;# 
  1920  008D                     	;# 
  1921  008E                     	;# 
  1922  008E                     	;# 
  1923  008F                     	;# 
  1924  0090                     	;# 
  1925  0090                     	;# 
  1926  0091                     	;# 
  1927  0092                     	;# 
  1928  0092                     	;# 
  1929  0093                     	;# 
  1930  0094                     	;# 
  1931  0094                     	;# 
  1932  0095                     	;# 
  1933  0096                     	;# 
  1934  0096                     	;# 
  1935  0097                     	;# 
  1936  0098                     	;# 
  1937  0099                     	;# 
  1938  009A                     	;# 
  1939  009B                     	;# 
  1940  009B                     	;# 
  1941  009C                     	;# 
  1942  009D                     	;# 
  1943  009D                     	;# 
  1944  009E                     	;# 
  1945  009F                     	;# 
  1946  010C                     	;# 
  1947  010C                     	;# 
  1948  010D                     	;# 
  1949  010E                     	;# 
  1950  010F                     	;# 
  1951  010F                     	;# 
  1952  0110                     	;# 
  1953  0111                     	;# 
  1954  0112                     	;# 
  1955  0113                     	;# 
  1956  0114                     	;# 
  1957  0115                     	;# 
  1958  0116                     	;# 
  1959  0117                     	;# 
  1960  0118                     	;# 
  1961  0119                     	;# 
  1962  0119                     	;# 
  1963  0119                     	;# 
  1964  011A                     	;# 
  1965  011A                     	;# 
  1966  011A                     	;# 
  1967  011B                     	;# 
  1968  011B                     	;# 
  1969  011B                     	;# 
  1970  011B                     	;# 
  1971  011B                     	;# 
  1972  011C                     	;# 
  1973  011C                     	;# 
  1974  011C                     	;# 
  1975  011D                     	;# 
  1976  011D                     	;# 
  1977  011D                     	;# 
  1978  011E                     	;# 
  1979  011E                     	;# 
  1980  011E                     	;# 
  1981  011F                     	;# 
  1982  011F                     	;# 
  1983  011F                     	;# 
  1984  011F                     	;# 
  1985  011F                     	;# 
  1986  018C                     	;# 
  1987  018D                     	;# 
  1988  018E                     	;# 
  1989  018F                     	;# 
  1990  0190                     	;# 
  1991  0191                     	;# 
  1992  0192                     	;# 
  1993  0196                     	;# 
  1994  0197                     	;# 
  1995  0198                     	;# 
  1996  0199                     	;# 
  1997  019A                     	;# 
  1998  019B                     	;# 
  1999  019C                     	;# 
  2000  020C                     	;# 
  2001  020D                     	;# 
  2002  020E                     	;# 
  2003  020E                     	;# 
  2004  020F                     	;# 
  2005  020F                     	;# 
  2006  0210                     	;# 
  2007  0210                     	;# 
  2008  0211                     	;# 
  2009  0211                     	;# 
  2010  0212                     	;# 
  2011  0213                     	;# 
  2012  0214                     	;# 
  2013  0214                     	;# 
  2014  0215                     	;# 
  2015  0215                     	;# 
  2016  0216                     	;# 
  2017  0216                     	;# 
  2018  0217                     	;# 
  2019  0217                     	;# 
  2020  0218                     	;# 
  2021  0219                     	;# 
  2022  021A                     	;# 
  2023  021A                     	;# 
  2024  021B                     	;# 
  2025  021B                     	;# 
  2026  021C                     	;# 
  2027  021C                     	;# 
  2028  021D                     	;# 
  2029  021D                     	;# 
  2030  021E                     	;# 
  2031  021F                     	;# 
  2032  028C                     	;# 
  2033  028C                     	;# 
  2034  028D                     	;# 
  2035  028D                     	;# 
  2036  028E                     	;# 
  2037  028F                     	;# 
  2038  0290                     	;# 
  2039  0291                     	;# 
  2040  0292                     	;# 
  2041  0292                     	;# 
  2042  0293                     	;# 
  2043  0293                     	;# 
  2044  0294                     	;# 
  2045  0295                     	;# 
  2046  0296                     	;# 
  2047  0297                     	;# 
  2048  0298                     	;# 
  2049  0298                     	;# 
  2050  0299                     	;# 
  2051  0299                     	;# 
  2052  029A                     	;# 
  2053  029B                     	;# 
  2054  029C                     	;# 
  2055  029D                     	;# 
  2056  029F                     	;# 
  2057  030C                     	;# 
  2058  030C                     	;# 
  2059  030D                     	;# 
  2060  030E                     	;# 
  2061  030F                     	;# 
  2062  0310                     	;# 
  2063  0310                     	;# 
  2064  0311                     	;# 
  2065  0312                     	;# 
  2066  0313                     	;# 
  2067  0314                     	;# 
  2068  0314                     	;# 
  2069  0315                     	;# 
  2070  0316                     	;# 
  2071  0317                     	;# 
  2072  0318                     	;# 
  2073  0318                     	;# 
  2074  0319                     	;# 
  2075  031A                     	;# 
  2076  031B                     	;# 
  2077  038C                     	;# 
  2078  038C                     	;# 
  2079  038D                     	;# 
  2080  038E                     	;# 
  2081  0390                     	;# 
  2082  0390                     	;# 
  2083  0391                     	;# 
  2084  0392                     	;# 
  2085  048C                     	;# 
  2086  048C                     	;# 
  2087  048D                     	;# 
  2088  048E                     	;# 
  2089  048F                     	;# 
  2090  048F                     	;# 
  2091  0490                     	;# 
  2092  0491                     	;# 
  2093  0492                     	;# 
  2094  0492                     	;# 
  2095  0493                     	;# 
  2096  0494                     	;# 
  2097  0495                     	;# 
  2098  0495                     	;# 
  2099  0496                     	;# 
  2100  0497                     	;# 
  2101  0498                     	;# 
  2102  0499                     	;# 
  2103  049A                     	;# 
  2104  049B                     	;# 
  2105  049C                     	;# 
  2106  049D                     	;# 
  2107  058C                     	;# 
  2108  058C                     	;# 
  2109  058D                     	;# 
  2110  058E                     	;# 
  2111  058F                     	;# 
  2112  058F                     	;# 
  2113  0590                     	;# 
  2114  0591                     	;# 
  2115  0592                     	;# 
  2116  0593                     	;# 
  2117  059C                     	;# 
  2118  059C                     	;# 
  2119  059D                     	;# 
  2120  059D                     	;# 
  2121  059E                     	;# 
  2122  059F                     	;# 
  2123  060C                     	;# 
  2124  060C                     	;# 
  2125  060D                     	;# 
  2126  060D                     	;# 
  2127  060E                     	;# 
  2128  060F                     	;# 
  2129  0610                     	;# 
  2130  0611                     	;# 
  2131  0612                     	;# 
  2132  0613                     	;# 
  2133  0614                     	;# 
  2134  0616                     	;# 
  2135  0616                     	;# 
  2136  0617                     	;# 
  2137  0617                     	;# 
  2138  0618                     	;# 
  2139  0619                     	;# 
  2140  061A                     	;# 
  2141  061B                     	;# 
  2142  061C                     	;# 
  2143  061D                     	;# 
  2144  061E                     	;# 
  2145  070C                     	;# 
  2146  070D                     	;# 
  2147  070E                     	;# 
  2148  070F                     	;# 
  2149  0710                     	;# 
  2150  0711                     	;# 
  2151  0712                     	;# 
  2152  0713                     	;# 
  2153  0714                     	;# 
  2154  0716                     	;# 
  2155  0717                     	;# 
  2156  0718                     	;# 
  2157  0719                     	;# 
  2158  071A                     	;# 
  2159  071B                     	;# 
  2160  071C                     	;# 
  2161  071D                     	;# 
  2162  071E                     	;# 
  2163  0796                     	;# 
  2164  0797                     	;# 
  2165  0798                     	;# 
  2166  0799                     	;# 
  2167  079A                     	;# 
  2168  079B                     	;# 
  2169  079C                     	;# 
  2170  079D                     	;# 
  2171  080C                     	;# 
  2172  080D                     	;# 
  2173  080E                     	;# 
  2174  080F                     	;# 
  2175  0810                     	;# 
  2176  0811                     	;# 
  2177  0812                     	;# 
  2178  0813                     	;# 
  2179  0814                     	;# 
  2180  081A                     	;# 
  2181  081A                     	;# 
  2182  081B                     	;# 
  2183  081C                     	;# 
  2184  081C                     	;# 
  2185  081D                     	;# 
  2186  081E                     	;# 
  2187  081F                     	;# 
  2188  088C                     	;# 
  2189  088D                     	;# 
  2190  088E                     	;# 
  2191  088F                     	;# 
  2192  0890                     	;# 
  2193  0891                     	;# 
  2194  0892                     	;# 
  2195  0893                     	;# 
  2196  0895                     	;# 
  2197  0896                     	;# 
  2198  0897                     	;# 
  2199  0898                     	;# 
  2200  0899                     	;# 
  2201  089A                     	;# 
  2202  089B                     	;# 
  2203  090C                     	;# 
  2204  090E                     	;# 
  2205  090F                     	;# 
  2206  091F                     	;# 
  2207  098F                     	;# 
  2208  098F                     	;# 
  2209  0990                     	;# 
  2210  0991                     	;# 
  2211  0992                     	;# 
  2212  0993                     	;# 
  2213  0994                     	;# 
  2214  0995                     	;# 
  2215  0996                     	;# 
  2216  0997                     	;# 
  2217  1E0F                     	;# 
  2218  1E10                     	;# 
  2219  1E11                     	;# 
  2220  1E12                     	;# 
  2221  1E13                     	;# 
  2222  1E14                     	;# 
  2223  1E15                     	;# 
  2224  1E16                     	;# 
  2225  1E17                     	;# 
  2226  1E18                     	;# 
  2227  1E19                     	;# 
  2228  1E1A                     	;# 
  2229  1E1B                     	;# 
  2230  1E1C                     	;# 
  2231  1E1D                     	;# 
  2232  1E1E                     	;# 
  2233  1E1F                     	;# 
  2234  1E20                     	;# 
  2235  1E21                     	;# 
  2236  1E22                     	;# 
  2237  1E23                     	;# 
  2238  1E24                     	;# 
  2239  1E25                     	;# 
  2240  1E26                     	;# 
  2241  1E27                     	;# 
  2242  1E28                     	;# 
  2243  1E29                     	;# 
  2244  1E2A                     	;# 
  2245  1E2B                     	;# 
  2246  1E2C                     	;# 
  2247  1E2D                     	;# 
  2248  1E2E                     	;# 
  2249  1E2F                     	;# 
  2250  1E30                     	;# 
  2251  1E31                     	;# 
  2252  1E32                     	;# 
  2253  1E33                     	;# 
  2254  1E34                     	;# 
  2255  1E35                     	;# 
  2256  1E36                     	;# 
  2257  1E37                     	;# 
  2258  1E8F                     	;# 
  2259  1E90                     	;# 
  2260  1E91                     	;# 
  2261  1E92                     	;# 
  2262  1E93                     	;# 
  2263  1E94                     	;# 
  2264  1E95                     	;# 
  2265  1E96                     	;# 
  2266  1E97                     	;# 
  2267  1E9C                     	;# 
  2268  1E9D                     	;# 
  2269  1E9E                     	;# 
  2270  1EA1                     	;# 
  2271  1EA2                     	;# 
  2272  1EA3                     	;# 
  2273  1EA4                     	;# 
  2274  1EA9                     	;# 
  2275  1EAA                     	;# 
  2276  1EB1                     	;# 
  2277  1EB2                     	;# 
  2278  1EB8                     	;# 
  2279  1EB9                     	;# 
  2280  1EBA                     	;# 
  2281  1EBB                     	;# 
  2282  1EBC                     	;# 
  2283  1EBD                     	;# 
  2284  1EBE                     	;# 
  2285  1EC3                     	;# 
  2286  1EC5                     	;# 
  2287  1EC6                     	;# 
  2288  1EC7                     	;# 
  2289  1EC8                     	;# 
  2290  1EC9                     	;# 
  2291  1ECA                     	;# 
  2292  1ECB                     	;# 
  2293  1ECB                     	;# 
  2294  1ECB                     	;# 
  2295  1ECC                     	;# 
  2296  1ECC                     	;# 
  2297  1ECC                     	;# 
  2298  1F10                     	;# 
  2299  1F11                     	;# 
  2300  1F12                     	;# 
  2301  1F14                     	;# 
  2302  1F15                     	;# 
  2303  1F1C                     	;# 
  2304  1F1D                     	;# 
  2305  1F1E                     	;# 
  2306  1F1F                     	;# 
  2307  1F20                     	;# 
  2308  1F21                     	;# 
  2309  1F22                     	;# 
  2310  1F23                     	;# 
  2311  1F24                     	;# 
  2312  1F25                     	;# 
  2313  1F26                     	;# 
  2314  1F27                     	;# 
  2315  1F38                     	;# 
  2316  1F39                     	;# 
  2317  1F3A                     	;# 
  2318  1F3B                     	;# 
  2319  1F3C                     	;# 
  2320  1F3D                     	;# 
  2321  1F3E                     	;# 
  2322  1F3F                     	;# 
  2323  1F43                     	;# 
  2324  1F44                     	;# 
  2325  1F45                     	;# 
  2326  1F46                     	;# 
  2327  1F47                     	;# 
  2328  1F48                     	;# 
  2329  1F49                     	;# 
  2330  1F4A                     	;# 
  2331  1F4E                     	;# 
  2332  1F4F                     	;# 
  2333  1F50                     	;# 
  2334  1F51                     	;# 
  2335  1F52                     	;# 
  2336  1F53                     	;# 
  2337  1F54                     	;# 
  2338  1F55                     	;# 
  2339  1FE4                     	;# 
  2340  1FE5                     	;# 
  2341  1FE6                     	;# 
  2342  1FE7                     	;# 
  2343  1FE8                     	;# 
  2344  1FE8                     	;# 
  2345  1FE9                     	;# 
  2346  1FEA                     	;# 
  2347  1FEB                     	;# 
  2348  1FED                     	;# 
  2349  1FEE                     	;# 
  2350  1FEF                     	;# 
  2351  0000                     	;# 
  2352  0001                     	;# 
  2353  0002                     	;# 
  2354  0003                     	;# 
  2355  0004                     	;# 
  2356  0005                     	;# 
  2357  0006                     	;# 
  2358  0007                     	;# 
  2359  0008                     	;# 
  2360  0009                     	;# 
  2361  000A                     	;# 
  2362  000B                     	;# 
  2363  000C                     	;# 
  2364  000D                     	;# 
  2365  000E                     	;# 
  2366  0012                     	;# 
  2367  0013                     	;# 
  2368  0014                     	;# 
  2369  0018                     	;# 
  2370  0019                     	;# 
  2371  001A                     	;# 
  2372  008C                     	;# 
  2373  008C                     	;# 
  2374  008D                     	;# 
  2375  008E                     	;# 
  2376  008E                     	;# 
  2377  008F                     	;# 
  2378  0090                     	;# 
  2379  0090                     	;# 
  2380  0091                     	;# 
  2381  0092                     	;# 
  2382  0092                     	;# 
  2383  0093                     	;# 
  2384  0094                     	;# 
  2385  0094                     	;# 
  2386  0095                     	;# 
  2387  0096                     	;# 
  2388  0096                     	;# 
  2389  0097                     	;# 
  2390  0098                     	;# 
  2391  0099                     	;# 
  2392  009A                     	;# 
  2393  009B                     	;# 
  2394  009B                     	;# 
  2395  009C                     	;# 
  2396  009D                     	;# 
  2397  009D                     	;# 
  2398  009E                     	;# 
  2399  009F                     	;# 
  2400  010C                     	;# 
  2401  010C                     	;# 
  2402  010D                     	;# 
  2403  010E                     	;# 
  2404  010F                     	;# 
  2405  010F                     	;# 
  2406  0110                     	;# 
  2407  0111                     	;# 
  2408  0112                     	;# 
  2409  0113                     	;# 
  2410  0114                     	;# 
  2411  0115                     	;# 
  2412  0116                     	;# 
  2413  0117                     	;# 
  2414  0118                     	;# 
  2415  0119                     	;# 
  2416  0119                     	;# 
  2417  0119                     	;# 
  2418  011A                     	;# 
  2419  011A                     	;# 
  2420  011A                     	;# 
  2421  011B                     	;# 
  2422  011B                     	;# 
  2423  011B                     	;# 
  2424  011B                     	;# 
  2425  011B                     	;# 
  2426  011C                     	;# 
  2427  011C                     	;# 
  2428  011C                     	;# 
  2429  011D                     	;# 
  2430  011D                     	;# 
  2431  011D                     	;# 
  2432  011E                     	;# 
  2433  011E                     	;# 
  2434  011E                     	;# 
  2435  011F                     	;# 
  2436  011F                     	;# 
  2437  011F                     	;# 
  2438  011F                     	;# 
  2439  011F                     	;# 
  2440  018C                     	;# 
  2441  018D                     	;# 
  2442  018E                     	;# 
  2443  018F                     	;# 
  2444  0190                     	;# 
  2445  0191                     	;# 
  2446  0192                     	;# 
  2447  0196                     	;# 
  2448  0197                     	;# 
  2449  0198                     	;# 
  2450  0199                     	;# 
  2451  019A                     	;# 
  2452  019B                     	;# 
  2453  019C                     	;# 
  2454  020C                     	;# 
  2455  020D                     	;# 
  2456  020E                     	;# 
  2457  020E                     	;# 
  2458  020F                     	;# 
  2459  020F                     	;# 
  2460  0210                     	;# 
  2461  0210                     	;# 
  2462  0211                     	;# 
  2463  0211                     	;# 
  2464  0212                     	;# 
  2465  0213                     	;# 
  2466  0214                     	;# 
  2467  0214                     	;# 
  2468  0215                     	;# 
  2469  0215                     	;# 
  2470  0216                     	;# 
  2471  0216                     	;# 
  2472  0217                     	;# 
  2473  0217                     	;# 
  2474  0218                     	;# 
  2475  0219                     	;# 
  2476  021A                     	;# 
  2477  021A                     	;# 
  2478  021B                     	;# 
  2479  021B                     	;# 
  2480  021C                     	;# 
  2481  021C                     	;# 
  2482  021D                     	;# 
  2483  021D                     	;# 
  2484  021E                     	;# 
  2485  021F                     	;# 
  2486  028C                     	;# 
  2487  028C                     	;# 
  2488  028D                     	;# 
  2489  028D                     	;# 
  2490  028E                     	;# 
  2491  028F                     	;# 
  2492  0290                     	;# 
  2493  0291                     	;# 
  2494  0292                     	;# 
  2495  0292                     	;# 
  2496  0293                     	;# 
  2497  0293                     	;# 
  2498  0294                     	;# 
  2499  0295                     	;# 
  2500  0296                     	;# 
  2501  0297                     	;# 
  2502  0298                     	;# 
  2503  0298                     	;# 
  2504  0299                     	;# 
  2505  0299                     	;# 
  2506  029A                     	;# 
  2507  029B                     	;# 
  2508  029C                     	;# 
  2509  029D                     	;# 
  2510  029F                     	;# 
  2511  030C                     	;# 
  2512  030C                     	;# 
  2513  030D                     	;# 
  2514  030E                     	;# 
  2515  030F                     	;# 
  2516  0310                     	;# 
  2517  0310                     	;# 
  2518  0311                     	;# 
  2519  0312                     	;# 
  2520  0313                     	;# 
  2521  0314                     	;# 
  2522  0314                     	;# 
  2523  0315                     	;# 
  2524  0316                     	;# 
  2525  0317                     	;# 
  2526  0318                     	;# 
  2527  0318                     	;# 
  2528  0319                     	;# 
  2529  031A                     	;# 
  2530  031B                     	;# 
  2531  038C                     	;# 
  2532  038C                     	;# 
  2533  038D                     	;# 
  2534  038E                     	;# 
  2535  0390                     	;# 
  2536  0390                     	;# 
  2537  0391                     	;# 
  2538  0392                     	;# 
  2539  048C                     	;# 
  2540  048C                     	;# 
  2541  048D                     	;# 
  2542  048E                     	;# 
  2543  048F                     	;# 
  2544  048F                     	;# 
  2545  0490                     	;# 
  2546  0491                     	;# 
  2547  0492                     	;# 
  2548  0492                     	;# 
  2549  0493                     	;# 
  2550  0494                     	;# 
  2551  0495                     	;# 
  2552  0495                     	;# 
  2553  0496                     	;# 
  2554  0497                     	;# 
  2555  0498                     	;# 
  2556  0499                     	;# 
  2557  049A                     	;# 
  2558  049B                     	;# 
  2559  049C                     	;# 
  2560  049D                     	;# 
  2561  058C                     	;# 
  2562  058C                     	;# 
  2563  058D                     	;# 
  2564  058E                     	;# 
  2565  058F                     	;# 
  2566  058F                     	;# 
  2567  0590                     	;# 
  2568  0591                     	;# 
  2569  0592                     	;# 
  2570  0593                     	;# 
  2571  059C                     	;# 
  2572  059C                     	;# 
  2573  059D                     	;# 
  2574  059D                     	;# 
  2575  059E                     	;# 
  2576  059F                     	;# 
  2577  060C                     	;# 
  2578  060C                     	;# 
  2579  060D                     	;# 
  2580  060D                     	;# 
  2581  060E                     	;# 
  2582  060F                     	;# 
  2583  0610                     	;# 
  2584  0611                     	;# 
  2585  0612                     	;# 
  2586  0613                     	;# 
  2587  0614                     	;# 
  2588  0616                     	;# 
  2589  0616                     	;# 
  2590  0617                     	;# 
  2591  0617                     	;# 
  2592  0618                     	;# 
  2593  0619                     	;# 
  2594  061A                     	;# 
  2595  061B                     	;# 
  2596  061C                     	;# 
  2597  061D                     	;# 
  2598  061E                     	;# 
  2599  070C                     	;# 
  2600  070D                     	;# 
  2601  070E                     	;# 
  2602  070F                     	;# 
  2603  0710                     	;# 
  2604  0711                     	;# 
  2605  0712                     	;# 
  2606  0713                     	;# 
  2607  0714                     	;# 
  2608  0716                     	;# 
  2609  0717                     	;# 
  2610  0718                     	;# 
  2611  0719                     	;# 
  2612  071A                     	;# 
  2613  071B                     	;# 
  2614  071C                     	;# 
  2615  071D                     	;# 
  2616  071E                     	;# 
  2617  0796                     	;# 
  2618  0797                     	;# 
  2619  0798                     	;# 
  2620  0799                     	;# 
  2621  079A                     	;# 
  2622  079B                     	;# 
  2623  079C                     	;# 
  2624  079D                     	;# 
  2625  080C                     	;# 
  2626  080D                     	;# 
  2627  080E                     	;# 
  2628  080F                     	;# 
  2629  0810                     	;# 
  2630  0811                     	;# 
  2631  0812                     	;# 
  2632  0813                     	;# 
  2633  0814                     	;# 
  2634  081A                     	;# 
  2635  081A                     	;# 
  2636  081B                     	;# 
  2637  081C                     	;# 
  2638  081C                     	;# 
  2639  081D                     	;# 
  2640  081E                     	;# 
  2641  081F                     	;# 
  2642  088C                     	;# 
  2643  088D                     	;# 
  2644  088E                     	;# 
  2645  088F                     	;# 
  2646  0890                     	;# 
  2647  0891                     	;# 
  2648  0892                     	;# 
  2649  0893                     	;# 
  2650  0895                     	;# 
  2651  0896                     	;# 
  2652  0897                     	;# 
  2653  0898                     	;# 
  2654  0899                     	;# 
  2655  089A                     	;# 
  2656  089B                     	;# 
  2657  090C                     	;# 
  2658  090E                     	;# 
  2659  090F                     	;# 
  2660  091F                     	;# 
  2661  098F                     	;# 
  2662  098F                     	;# 
  2663  0990                     	;# 
  2664  0991                     	;# 
  2665  0992                     	;# 
  2666  0993                     	;# 
  2667  0994                     	;# 
  2668  0995                     	;# 
  2669  0996                     	;# 
  2670  0997                     	;# 
  2671  1E0F                     	;# 
  2672  1E10                     	;# 
  2673  1E11                     	;# 
  2674  1E12                     	;# 
  2675  1E13                     	;# 
  2676  1E14                     	;# 
  2677  1E15                     	;# 
  2678  1E16                     	;# 
  2679  1E17                     	;# 
  2680  1E18                     	;# 
  2681  1E19                     	;# 
  2682  1E1A                     	;# 
  2683  1E1B                     	;# 
  2684  1E1C                     	;# 
  2685  1E1D                     	;# 
  2686  1E1E                     	;# 
  2687  1E1F                     	;# 
  2688  1E20                     	;# 
  2689  1E21                     	;# 
  2690  1E22                     	;# 
  2691  1E23                     	;# 
  2692  1E24                     	;# 
  2693  1E25                     	;# 
  2694  1E26                     	;# 
  2695  1E27                     	;# 
  2696  1E28                     	;# 
  2697  1E29                     	;# 
  2698  1E2A                     	;# 
  2699  1E2B                     	;# 
  2700  1E2C                     	;# 
  2701  1E2D                     	;# 
  2702  1E2E                     	;# 
  2703  1E2F                     	;# 
  2704  1E30                     	;# 
  2705  1E31                     	;# 
  2706  1E32                     	;# 
  2707  1E33                     	;# 
  2708  1E34                     	;# 
  2709  1E35                     	;# 
  2710  1E36                     	;# 
  2711  1E37                     	;# 
  2712  1E8F                     	;# 
  2713  1E90                     	;# 
  2714  1E91                     	;# 
  2715  1E92                     	;# 
  2716  1E93                     	;# 
  2717  1E94                     	;# 
  2718  1E95                     	;# 
  2719  1E96                     	;# 
  2720  1E97                     	;# 
  2721  1E9C                     	;# 
  2722  1E9D                     	;# 
  2723  1E9E                     	;# 
  2724  1EA1                     	;# 
  2725  1EA2                     	;# 
  2726  1EA3                     	;# 
  2727  1EA4                     	;# 
  2728  1EA9                     	;# 
  2729  1EAA                     	;# 
  2730  1EB1                     	;# 
  2731  1EB2                     	;# 
  2732  1EB8                     	;# 
  2733  1EB9                     	;# 
  2734  1EBA                     	;# 
  2735  1EBB                     	;# 
  2736  1EBC                     	;# 
  2737  1EBD                     	;# 
  2738  1EBE                     	;# 
  2739  1EC3                     	;# 
  2740  1EC5                     	;# 
  2741  1EC6                     	;# 
  2742  1EC7                     	;# 
  2743  1EC8                     	;# 
  2744  1EC9                     	;# 
  2745  1ECA                     	;# 
  2746  1ECB                     	;# 
  2747  1ECB                     	;# 
  2748  1ECB                     	;# 
  2749  1ECC                     	;# 
  2750  1ECC                     	;# 
  2751  1ECC                     	;# 
  2752  1F10                     	;# 
  2753  1F11                     	;# 
  2754  1F12                     	;# 
  2755  1F14                     	;# 
  2756  1F15                     	;# 
  2757  1F1C                     	;# 
  2758  1F1D                     	;# 
  2759  1F1E                     	;# 
  2760  1F1F                     	;# 
  2761  1F20                     	;# 
  2762  1F21                     	;# 
  2763  1F22                     	;# 
  2764  1F23                     	;# 
  2765  1F24                     	;# 
  2766  1F25                     	;# 
  2767  1F26                     	;# 
  2768  1F27                     	;# 
  2769  1F38                     	;# 
  2770  1F39                     	;# 
  2771  1F3A                     	;# 
  2772  1F3B                     	;# 
  2773  1F3C                     	;# 
  2774  1F3D                     	;# 
  2775  1F3E                     	;# 
  2776  1F3F                     	;# 
  2777  1F43                     	;# 
  2778  1F44                     	;# 
  2779  1F45                     	;# 
  2780  1F46                     	;# 
  2781  1F47                     	;# 
  2782  1F48                     	;# 
  2783  1F49                     	;# 
  2784  1F4A                     	;# 
  2785  1F4E                     	;# 
  2786  1F4F                     	;# 
  2787  1F50                     	;# 
  2788  1F51                     	;# 
  2789  1F52                     	;# 
  2790  1F53                     	;# 
  2791  1F54                     	;# 
  2792  1F55                     	;# 
  2793  1FE4                     	;# 
  2794  1FE5                     	;# 
  2795  1FE6                     	;# 
  2796  1FE7                     	;# 
  2797  1FE8                     	;# 
  2798  1FE8                     	;# 
  2799  1FE9                     	;# 
  2800  1FEA                     	;# 
  2801  1FEB                     	;# 
  2802  1FED                     	;# 
  2803  1FEE                     	;# 
  2804  1FEF                     	;# 
  2805  0014                     _TRISC	set	20
  2806  0013                     _TRISB	set	19
  2807  0012                     _TRISA	set	18
  2808  001A                     _LATC	set	26
  2809  0019                     _LATB	set	25
  2810  0018                     _LATA	set	24
  2811  000B                     _INTCONbits	set	11
  2812  0119                     _RC1REG	set	281
  2813  011D                     _RC1STAbits	set	285
  2814  011A                     _TX1REG	set	282
  2815  011E                     _TX1STAbits	set	286
  2816  011C                     _SP1BRGH	set	284
  2817  011B                     _SP1BRGL	set	283
  2818  011E                     _TX1STA	set	286
  2819  011D                     _RC1STA	set	285
  2820  011F                     _BAUD1CON	set	287
  2821  070F                     _PIR3bits	set	1807
  2822  0719                     _PIE3bits	set	1817
  2823  079D                     _PMD7	set	1949
  2824  079C                     _PMD6	set	1948
  2825  079B                     _PMD5	set	1947
  2826  079A                     _PMD4	set	1946
  2827  0799                     _PMD3	set	1945
  2828  0798                     _PMD2	set	1944
  2829  0797                     _PMD1	set	1943
  2830  0796                     _PMD0	set	1942
  2831  0892                     _OSCTUNE	set	2194
  2832  0893                     _OSCFRQ	set	2195
  2833  0891                     _OSCEN	set	2193
  2834  088F                     _OSCCON3	set	2191
  2835  088D                     _OSCCON1	set	2189
  2836  4480                     _PLLR	set	17536
  2837  1ECB                     _RX1DTPPS	set	7883
  2838  1F1F                     _RB7PPS	set	7967
  2839  1F52                     _INLVLC	set	8018
  2840  1F47                     _INLVLB	set	8007
  2841  1F3C                     _INLVLA	set	7996
  2842  1F51                     _SLRCONC	set	8017
  2843  1F46                     _SLRCONB	set	8006
  2844  1F3B                     _SLRCONA	set	7995
  2845  1F50                     _ODCONC	set	8016
  2846  1F45                     _ODCONB	set	8005
  2847  1F3A                     _ODCONA	set	7994
  2848  1F4F                     _WPUC	set	8015
  2849  1F39                     _WPUA	set	7993
  2850  1F44                     _WPUB	set	8004
  2851  1F38                     _ANSELA	set	7992
  2852  1F43                     _ANSELB	set	8003
  2853  1F4E                     _ANSELC	set	8014
  2854                           
  2855                           	psect	stringtext1
  2856  02B0                     __pstringtext1:
  2857  02B0                     STR_4:
  2858  02B0  3447               	retlw	71	;'G'
  2859  02B1  3465               	retlw	101	;'e'
  2860  02B2  3463               	retlw	99	;'c'
  2861  02B3  3465               	retlw	101	;'e'
  2862  02B4  3472               	retlw	114	;'r'
  2863  02B5  346C               	retlw	108	;'l'
  2864  02B6  3469               	retlw	105	;'i'
  2865  02B7  3420               	retlw	32	;' '
  2866  02B8  3462               	retlw	98	;'b'
  2867  02B9  3469               	retlw	105	;'i'
  2868  02BA  3472               	retlw	114	;'r'
  2869  02BB  3420               	retlw	32	;' '
  2870  02BC  3473               	retlw	115	;'s'
  2871  02BD  3461               	retlw	97	;'a'
  2872  02BE  3479               	retlw	121	;'y'
  2873  02BF  343F               	retlw	63	;'?'
  2874  02C0  3420               	retlw	32	;' '
  2875  02C1  3467               	retlw	103	;'g'
  2876  02C2  3469               	retlw	105	;'i'
  2877  02C3  3472               	retlw	114	;'r'
  2878  02C4  3469               	retlw	105	;'i'
  2879  02C5  346E               	retlw	110	;'n'
  2880  02C6  3469               	retlw	105	;'i'
  2881  02C7  347A               	retlw	122	;'z'
  2882  02C8  3420               	retlw	32	;' '
  2883  02C9  3428               	retlw	40	;'('
  2884  02CA  3431               	retlw	49	;'1'
  2885  02CB  342D               	retlw	45	;'-'
  2886  02CC  3433               	retlw	51	;'3'
  2887  02CD  3429               	retlw	41	;')'
  2888  02CE  3400               	retlw	0
  2889                           
  2890                           	psect	stringtext2
  2891  0366                     __pstringtext2:
  2892  0366                     STR_1:
  2893  0366  3431               	retlw	49	;'1'
  2894  0367  3400               	retlw	0
  2895                           
  2896                           	psect	stringtext3
  2897  0368                     __pstringtext3:
  2898  0368                     STR_2:
  2899  0368  3432               	retlw	50	;'2'
  2900  0369  3400               	retlw	0
  2901                           
  2902                           	psect	stringtext4
  2903  036A                     __pstringtext4:
  2904  036A                     STR_3:
  2905  036A  3433               	retlw	51	;'3'
  2906  036B  3400               	retlw	0
  2907                           
  2908                           	psect	stringtext5
  2909  0000                     __pstringtext5:
  2910                           
  2911                           	psect	cinit
  2912  002D                     start_initialization:	
  2913                           ; #config settings
  2914                           
  2915  002D                     __initialization:
  2916                           
  2917                           ; Clear objects allocated to COMMON
  2918  002D  01FC               	clrf	__pbssCOMMON& (0+127)
  2919                           
  2920                           ; Clear objects allocated to BANK0
  2921  002E  3020               	movlw	low __pbssBANK0
  2922  002F  0084               	movwf	4
  2923  0030  3000               	movlw	high __pbssBANK0
  2924  0031  0085               	movwf	5
  2925  0032  3028               	movlw	40
  2926  0033  3183  2334  3180   	fcall	clear_ram0
  2927                           
  2928                           ; Clear objects allocated to BANK1
  2929  0036  30A0               	movlw	low __pbssBANK1
  2930  0037  0084               	movwf	4
  2931  0038  3000               	movlw	high __pbssBANK1
  2932  0039  0085               	movwf	5
  2933  003A  3028               	movlw	40
  2934  003B  3183  2334  3180   	fcall	clear_ram0
  2935  003E                     end_of_initialization:	
  2936                           ;End of C runtime variable initialization code
  2937                           
  2938  003E                     __end_of__initialization:
  2939  003E  107E               	bcf	int$flags,0	;clear compiler interrupt flag (level 1)
  2940  003F  0140               	movlb	0
  2941  0040  3183  2B15         	ljmp	_main	;jump to C main() function
  2942                           
  2943                           	psect	bssCOMMON
  2944  007C                     __pbssCOMMON:
  2945  007C                     _eusart1RxHead:
  2946  007C                     	ds	1
  2947                           
  2948                           	psect	bssBANK0
  2949  0020                     __pbssBANK0:
  2950  0020                     _eusart1RxStatusBuffer:
  2951  0020                     	ds	8
  2952  0028                     _eusart1TxBuffer:
  2953  0028                     	ds	8
  2954  0030                     _nout:
  2955  0030                     	ds	2
  2956  0032                     _width:
  2957  0032                     	ds	2
  2958  0034                     _prec:
  2959  0034                     	ds	2
  2960  0036                     _flags:
  2961  0036                     	ds	2
  2962  0038                     _EUSART1_ErrorHandler:
  2963  0038                     	ds	2
  2964  003A                     _EUSART1_OverrunErrorHandler:
  2965  003A                     	ds	2
  2966  003C                     _EUSART1_FramingErrorHandler:
  2967  003C                     	ds	2
  2968  003E                     _EUSART1_RxDefaultInterruptHandler:
  2969  003E                     	ds	2
  2970  0040                     _EUSART1_TxDefaultInterruptHandler:
  2971  0040                     	ds	2
  2972  0042                     _eusart1RxLastError:
  2973  0042                     	ds	1
  2974  0043                     _eusart1RxCount:
  2975  0043                     	ds	1
  2976  0044                     _eusart1RxTail:
  2977  0044                     	ds	1
  2978  0045                     _eusart1TxBufferRemaining:
  2979  0045                     	ds	1
  2980  0046                     _eusart1TxTail:
  2981  0046                     	ds	1
  2982  0047                     _eusart1TxHead:
  2983  0047                     	ds	1
  2984                           
  2985                           	psect	bssBANK1
  2986  00A0                     __pbssBANK1:
  2987  00A0                     _dbuf:
  2988  00A0                     	ds	32
  2989  00C0                     _eusart1RxBuffer:
  2990  00C0                     	ds	8
  2991                           
  2992                           	psect	clrtext
  2993  0334                     clear_ram0:	
  2994                           ;	Called with FSR0 containing the base address, and
  2995                           ;	WREG with the size to clear
  2996                           
  2997  0334  0064               	clrwdt	;clear the watchdog before getting into this loop
  2998  0335                     clrloop0:
  2999  0335  0180               	clrf	0	;clear RAM location pointed to by FSR
  3000  0336  3101               	addfsr 0,1
  3001  0337  0B89               	decfsz	9,f	;Have we reached the end of clearing yet?
  3002  0338  2B35               	goto	clrloop0	;have we reached the end yet?
  3003  0339  3400               	retlw	0	;all done for this memory range, return
  3004                           
  3005                           	psect	cstackCOMMON
  3006  0070                     __pcstackCOMMON:
  3007  0070                     ?_EUSART1_Receive_ISR:
  3008  0070                     ?_EUSART1_Transmit_ISR:	
  3009                           ; 1 bytes @ 0x0
  3010                           
  3011  0070                     ??_EUSART1_Transmit_ISR:	
  3012                           ; 1 bytes @ 0x0
  3013                           
  3014  0070                     ?_EUSART1_DefaultFramingErrorHandler:	
  3015                           ; 1 bytes @ 0x0
  3016                           
  3017  0070                     ??_EUSART1_DefaultFramingErrorHandler:	
  3018                           ; 1 bytes @ 0x0
  3019                           
  3020  0070                     ?_EUSART1_DefaultOverrunErrorHandler:	
  3021                           ; 1 bytes @ 0x0
  3022                           
  3023  0070                     ??_EUSART1_DefaultOverrunErrorHandler:	
  3024                           ; 1 bytes @ 0x0
  3025                           
  3026  0070                     ?_EUSART1_DefaultErrorHandler:	
  3027                           ; 1 bytes @ 0x0
  3028                           
  3029  0070                     ?_EUSART1_RxDataHandler:	
  3030                           ; 1 bytes @ 0x0
  3031                           
  3032  0070                     ??_EUSART1_RxDataHandler:	
  3033                           ; 1 bytes @ 0x0
  3034                           
  3035  0070                     ?_PMD_Initialize:	
  3036                           ; 1 bytes @ 0x0
  3037                           
  3038  0070                     ?_OSCILLATOR_Initialize:	
  3039                           ; 1 bytes @ 0x0
  3040                           
  3041  0070                     ?_verify_uart:	
  3042                           ; 1 bytes @ 0x0
  3043                           
  3044  0070                     ?_INTERRUPT_InterruptManager:	
  3045                           ; 1 bytes @ 0x0
  3046                           
  3047  0070                     ?_PIN_MANAGER_Initialize:	
  3048                           ; 1 bytes @ 0x0
  3049                           
  3050  0070                     ?_EUSART1_Initialize:	
  3051                           ; 1 bytes @ 0x0
  3052                           
  3053  0070                     ?_EUSART1_is_rx_ready:	
  3054                           ; 1 bytes @ 0x0
  3055                           
  3056  0070                     ?_EUSART1_Read:	
  3057                           ; 1 bytes @ 0x0
  3058                           
  3059  0070                     ?_EUSART1_Write:	
  3060                           ; 1 bytes @ 0x0
  3061                           
  3062  0070                     ?_putch:	
  3063                           ; 1 bytes @ 0x0
  3064                           
  3065  0070                     ?_SYSTEM_Initialize:	
  3066                           ; 1 bytes @ 0x0
  3067                           
  3068  0070                     ?_main:	
  3069                           ; 1 bytes @ 0x0
  3070                           
  3071                           
  3072                           ; 1 bytes @ 0x0
  3073  0070                     	ds	1
  3074  0071                     ?_EUSART1_SetRxInterruptHandler:
  3075  0071                     ??_EUSART1_Receive_ISR:	
  3076                           ; 1 bytes @ 0x1
  3077                           
  3078  0071                     ?_EUSART1_SetTxInterruptHandler:	
  3079                           ; 1 bytes @ 0x1
  3080                           
  3081  0071                     ?_EUSART1_SetFramingErrorHandler:	
  3082                           ; 1 bytes @ 0x1
  3083                           
  3084  0071                     ?_EUSART1_SetOverrunErrorHandler:	
  3085                           ; 1 bytes @ 0x1
  3086                           
  3087  0071                     ?_EUSART1_SetErrorHandler:	
  3088                           ; 1 bytes @ 0x1
  3089                           
  3090  0071                     ??_EUSART1_DefaultErrorHandler:	
  3091                           ; 1 bytes @ 0x1
  3092                           
  3093  0071                     ??_PMD_Initialize:	
  3094                           ; 1 bytes @ 0x1
  3095                           
  3096  0071                     ??_OSCILLATOR_Initialize:	
  3097                           ; 1 bytes @ 0x1
  3098                           
  3099  0071                     ??_INTERRUPT_InterruptManager:	
  3100                           ; 1 bytes @ 0x1
  3101                           
  3102  0071                     ??_PIN_MANAGER_Initialize:	
  3103                           ; 1 bytes @ 0x1
  3104                           
  3105  0071                     ??_EUSART1_is_rx_ready:	
  3106                           ; 1 bytes @ 0x1
  3107                           
  3108  0071                     ??_EUSART1_Read:	
  3109                           ; 1 bytes @ 0x1
  3110                           
  3111  0071                     ??_EUSART1_Write:	
  3112                           ; 1 bytes @ 0x1
  3113                           
  3114  0071                     EUSART1_SetFramingErrorHandler@interruptHandler:	
  3115                           ; 1 bytes @ 0x1
  3116                           
  3117  0071                     EUSART1_SetOverrunErrorHandler@interruptHandler:	
  3118                           ; 2 bytes @ 0x1
  3119                           
  3120  0071                     EUSART1_SetErrorHandler@interruptHandler:	
  3121                           ; 2 bytes @ 0x1
  3122                           
  3123  0071                     EUSART1_SetTxInterruptHandler@interruptHandler:	
  3124                           ; 2 bytes @ 0x1
  3125                           
  3126  0071                     EUSART1_SetRxInterruptHandler@interruptHandler:	
  3127                           ; 2 bytes @ 0x1
  3128                           
  3129                           
  3130                           ; 2 bytes @ 0x1
  3131  0071                     	ds	1
  3132  0072                     EUSART1_Read@readValue:
  3133  0072                     EUSART1_Write@txData:	
  3134                           ; 1 bytes @ 0x2
  3135                           
  3136                           
  3137                           ; 1 bytes @ 0x2
  3138  0072                     	ds	1
  3139  0073                     ??_EUSART1_SetRxInterruptHandler:
  3140  0073                     ??_EUSART1_SetTxInterruptHandler:	
  3141                           ; 1 bytes @ 0x3
  3142                           
  3143  0073                     ??_EUSART1_SetFramingErrorHandler:	
  3144                           ; 1 bytes @ 0x3
  3145                           
  3146  0073                     ??_EUSART1_SetOverrunErrorHandler:	
  3147                           ; 1 bytes @ 0x3
  3148                           
  3149  0073                     ??_EUSART1_SetErrorHandler:	
  3150                           ; 1 bytes @ 0x3
  3151                           
  3152  0073                     ??_EUSART1_Initialize:	
  3153                           ; 1 bytes @ 0x3
  3154                           
  3155  0073                     ??_putch:	
  3156                           ; 1 bytes @ 0x3
  3157                           
  3158  0073                     putch@txData:	
  3159                           ; 1 bytes @ 0x3
  3160                           
  3161                           
  3162                           ; 1 bytes @ 0x3
  3163  0073                     	ds	1
  3164  0074                     ??_SYSTEM_Initialize:
  3165  0074                     ?_fputc:	
  3166                           ; 1 bytes @ 0x4
  3167                           
  3168  0074                     fputc@c:	
  3169                           ; 2 bytes @ 0x4
  3170                           
  3171                           
  3172                           ; 2 bytes @ 0x4
  3173  0074                     	ds	2
  3174  0076                     fputc@fp:
  3175                           
  3176                           ; 1 bytes @ 0x6
  3177  0076                     	ds	1
  3178  0077                     ??_fputc:
  3179                           
  3180                           ; 1 bytes @ 0x7
  3181  0077                     	ds	5
  3182  007C                     ??_main:
  3183                           
  3184                           	psect	cstackBANK0
  3185  0048                     __pcstackBANK0:	
  3186                           ; 1 bytes @ 0xC
  3187                           
  3188  0048                     ?_vfpfcnvrt:
  3189  0048                     vfpfcnvrt@fmt:	
  3190                           ; 2 bytes @ 0x0
  3191                           
  3192                           
  3193                           ; 1 bytes @ 0x0
  3194  0048                     	ds	1
  3195  0049                     vfpfcnvrt@ap:
  3196                           
  3197                           ; 1 bytes @ 0x1
  3198  0049                     	ds	1
  3199  004A                     ??_vfpfcnvrt:
  3200                           
  3201                           ; 1 bytes @ 0x2
  3202  004A                     	ds	5
  3203  004F                     vfpfcnvrt@fp:
  3204                           
  3205                           ; 1 bytes @ 0x7
  3206  004F                     	ds	1
  3207  0050                     ?_vfprintf:
  3208  0050                     vfprintf@fmt:	
  3209                           ; 2 bytes @ 0x8
  3210                           
  3211                           
  3212                           ; 2 bytes @ 0x8
  3213  0050                     	ds	2
  3214  0052                     vfprintf@ap:
  3215                           
  3216                           ; 1 bytes @ 0xA
  3217  0052                     	ds	1
  3218  0053                     ??_vfprintf:
  3219                           
  3220                           ; 1 bytes @ 0xB
  3221  0053                     	ds	2
  3222  0055                     vfprintf@fp:
  3223                           
  3224                           ; 1 bytes @ 0xD
  3225  0055                     	ds	1
  3226  0056                     vfprintf@cfmt:
  3227                           
  3228                           ; 2 bytes @ 0xE
  3229  0056                     	ds	2
  3230  0058                     ?_printf:
  3231  0058                     printf@fmt:	
  3232                           ; 2 bytes @ 0x10
  3233                           
  3234                           
  3235                           ; 2 bytes @ 0x10
  3236  0058                     	ds	2
  3237  005A                     ??_printf:
  3238                           
  3239                           ; 1 bytes @ 0x12
  3240  005A                     	ds	1
  3241  005B                     printf@ap:
  3242                           
  3243                           ; 1 bytes @ 0x13
  3244  005B                     	ds	1
  3245  005C                     ??_verify_uart:
  3246                           
  3247                           ; 1 bytes @ 0x14
  3248  005C                     	ds	2
  3249  005E                     verify_uart@rxData:
  3250                           
  3251                           ; 1 bytes @ 0x16
  3252  005E                     	ds	1
  3253  005F                     verify_uart@arr:
  3254                           
  3255                           ; 1 bytes @ 0x17
  3256  005F                     	ds	1
  3257  0060                     verify_uart@i:
  3258                           
  3259                           ; 2 bytes @ 0x18
  3260  0060                     	ds	2
  3261  0062                     main@arr:
  3262                           
  3263                           ; 8 bytes @ 0x1A
  3264  0062                     	ds	8
  3265                           
  3266                           	psect	maintext
  3267  0315                     __pmaintext:	
  3268 ;;
  3269 ;;Main: autosize = 0, tempsize = 0, incstack = 0, save=0
  3270 ;;
  3271 ;; *************** function _main *****************
  3272 ;; Defined at:
  3273 ;;		line 54 in file "main.c"
  3274 ;; Parameters:    Size  Location     Type
  3275 ;;		None
  3276 ;; Auto vars:     Size  Location     Type
  3277 ;;  arr             8   26[BANK0 ] PTR unsigned char [8]
  3278 ;; Return value:  Size  Location     Type
  3279 ;;                  1    wreg      void 
  3280 ;; Registers used:
  3281 ;;		wreg, fsr0l, fsr0h, fsr1l, fsr1h, status,2, status,0, pclath, cstack
  3282 ;; Tracked objects:
  3283 ;;		On entry : B3F/0
  3284 ;;		On exit  : 0/0
  3285 ;;		Unchanged: 0/0
  3286 ;; Data sizes:     COMMON   BANK0   BANK1   BANK2   BANK3   BANK4   BANK5   BANK6   BANK7   BANK8   BANK9  BANK10  BANK1
      +1  BANK12  BANK13  BANK14  BANK15  BANK16  BANK17  BANK18  BANK19  BANK20  BANK21  BANK22  BANK23  BANK24  BANK25
  3287 ;;      Params:         0       0       0       0       0       0       0       0       0       0       0       0       
      +0       0       0       0       0       0       0       0       0       0       0       0       0       0       0
  3288 ;;      Locals:         0       8       0       0       0       0       0       0       0       0       0       0       
      +0       0       0       0       0       0       0       0       0       0       0       0       0       0       0
  3289 ;;      Temps:          0       0       0       0       0       0       0       0       0       0       0       0       
      +0       0       0       0       0       0       0       0       0       0       0       0       0       0       0
  3290 ;;      Totals:         0       8       0       0       0       0       0       0       0       0       0       0       
      +0       0       0       0       0       0       0       0       0       0       0       0       0       0       0
  3291 ;;Total ram usage:        8 bytes
  3292 ;; Hardware stack levels required when called: 11
  3293 ;; This function calls:
  3294 ;;		_SYSTEM_Initialize
  3295 ;;		_verify_uart
  3296 ;; This function is called by:
  3297 ;;		Startup code after reset
  3298 ;; This function uses a non-reentrant model
  3299 ;;
  3300                           
  3301  0315                     _main:	
  3302                           ;psect for function _main
  3303                           
  3304  0315                     l1726:	
  3305                           ;incstack = 0
  3306                           ; Regs used in _main: [wreg-fsr1h+status,2+status,0+pclath+cstack]
  3307                           
  3308                           
  3309                           ;main.c: 56:     SYSTEM_Initialize();
  3310  0315  3182  22FB  3183   	fcall	_SYSTEM_Initialize
  3311  0318                     l1728:
  3312                           
  3313                           ;main.c: 62:     (INTCONbits.GIE = 1);
  3314  0318  178B               	bsf	11,7	;volatile
  3315  0319                     l1730:
  3316                           
  3317                           ;main.c: 65:     (INTCONbits.PEIE = 1);
  3318  0319  170B               	bsf	11,6	;volatile
  3319  031A                     l1732:
  3320                           
  3321                           ;main.c: 77:         verify_uart(arr);
  3322  031A  3062               	movlw	(low (main@arr| 0))& (0+255)
  3323  031B  3180  20BE  3183   	fcall	_verify_uart
  3324  031E  2B1A               	goto	l1732
  3325  031F  3180  282B         	ljmp	start
  3326  0321                     __end_of_main:
  3327                           
  3328                           	psect	text1
  3329  00BE                     __ptext1:	
  3330 ;; *************** function _verify_uart *****************
  3331 ;; Defined at:
  3332 ;;		line 83 in file "main.c"
  3333 ;; Parameters:    Size  Location     Type
  3334 ;;  arr             1    wreg     PTR unsigned char 
  3335 ;;		 -> main@arr(8), 
  3336 ;; Auto vars:     Size  Location     Type
  3337 ;;  arr             1   23[BANK0 ] PTR unsigned char 
  3338 ;;		 -> main@arr(8), 
  3339 ;;  i               2   24[BANK0 ] int 
  3340 ;;  rxData          1   22[BANK0 ] unsigned char 
  3341 ;; Return value:  Size  Location     Type
  3342 ;;                  1    wreg      void 
  3343 ;; Registers used:
  3344 ;;		wreg, fsr0l, fsr0h, fsr1l, fsr1h, status,2, status,0, pclath, cstack
  3345 ;; Tracked objects:
  3346 ;;		On entry : 0/0
  3347 ;;		On exit  : 0/0
  3348 ;;		Unchanged: 0/0
  3349 ;; Data sizes:     COMMON   BANK0   BANK1   BANK2   BANK3   BANK4   BANK5   BANK6   BANK7   BANK8   BANK9  BANK10  BANK1
      +1  BANK12  BANK13  BANK14  BANK15  BANK16  BANK17  BANK18  BANK19  BANK20  BANK21  BANK22  BANK23  BANK24  BANK25
  3350 ;;      Params:         0       0       0       0       0       0       0       0       0       0       0       0       
      +0       0       0       0       0       0       0       0       0       0       0       0       0       0       0
  3351 ;;      Locals:         0       4       0       0       0       0       0       0       0       0       0       0       
      +0       0       0       0       0       0       0       0       0       0       0       0       0       0       0
  3352 ;;      Temps:          0       2       0       0       0       0       0       0       0       0       0       0       
      +0       0       0       0       0       0       0       0       0       0       0       0       0       0       0
  3353 ;;      Totals:         0       6       0       0       0       0       0       0       0       0       0       0       
      +0       0       0       0       0       0       0       0       0       0       0       0       0       0       0
  3354 ;;Total ram usage:        6 bytes
  3355 ;; Hardware stack levels used: 1
  3356 ;; Hardware stack levels required when called: 10
  3357 ;; This function calls:
  3358 ;;		_EUSART1_Read
  3359 ;;		_EUSART1_is_rx_ready
  3360 ;;		_printf
  3361 ;; This function is called by:
  3362 ;;		_main
  3363 ;; This function uses a non-reentrant model
  3364 ;;
  3365                           
  3366  00BE                     _verify_uart:	
  3367                           ;psect for function _verify_uart
  3368                           
  3369                           
  3370                           ;incstack = 0
  3371                           ; Regs used in _verify_uart: [wreg-fsr1h+status,2+status,0+pclath+cstack]
  3372                           ;verify_uart@arr stored from wreg
  3373  00BE  0140               	movlb	0	; select bank0
  3374  00BF  00DF               	movwf	verify_uart@arr
  3375  00C0                     l1690:
  3376                           
  3377                           ;main.c: 84:     char rxData = 0;
  3378  00C0  01DE               	clrf	verify_uart@rxData
  3379  00C1                     l1692:
  3380                           
  3381                           ;main.c: 85:     if (EUSART1_is_rx_ready()) {
  3382  00C1  3183  232B  3180   	fcall	_EUSART1_is_rx_ready
  3383  00C4  3A00               	xorlw	0
  3384  00C5  1903               	skipnz
  3385  00C6  28C8               	goto	u681
  3386  00C7  28C9               	goto	u680
  3387  00C8                     u681:
  3388  00C8  28D0               	goto	l1696
  3389  00C9                     u680:
  3390  00C9                     l1694:
  3391                           
  3392                           ;main.c: 86:         rxData = EUSART1_Read();
  3393  00C9  3182  2213  3180   	fcall	_EUSART1_Read
  3394  00CC  0140               	movlb	0	; select bank0
  3395  00CD  00DC               	movwf	??_verify_uart
  3396  00CE  085C               	movf	??_verify_uart,w
  3397  00CF  00DE               	movwf	verify_uart@rxData
  3398  00D0                     l1696:
  3399                           
  3400                           ;main.c: 89:     if (rxData == '$') {
  3401  00D0  3024               	movlw	36
  3402  00D1  0140               	movlb	0	; select bank0
  3403  00D2  065E               	xorwf	verify_uart@rxData,w
  3404  00D3  1D03               	btfss	3,2
  3405  00D4  28D6               	goto	u691
  3406  00D5  28D7               	goto	u690
  3407  00D6                     u691:
  3408  00D6  292F               	goto	l304
  3409  00D7                     u690:
  3410  00D7                     l1698:
  3411                           
  3412                           ;main.c: 90:         int i;;main.c: 91:         for (i = 0; i < 8; i++) {
  3413  00D7  01E0               	clrf	verify_uart@i
  3414  00D8  01E1               	clrf	verify_uart@i+1
  3415  00D9                     l1704:
  3416                           
  3417                           ;main.c: 92:             arr[i] = EUSART1_Read();
  3418  00D9  3182  2213  3180   	fcall	_EUSART1_Read
  3419  00DC  0140               	movlb	0	; select bank0
  3420  00DD  00DC               	movwf	??_verify_uart
  3421  00DE  0860               	movf	verify_uart@i,w
  3422  00DF  075F               	addwf	verify_uart@arr,w
  3423  00E0  00DD               	movwf	??_verify_uart+1
  3424  00E1  085D               	movf	??_verify_uart+1,w
  3425  00E2  0086               	movwf	6
  3426  00E3  0187               	clrf	7
  3427  00E4  085C               	movf	??_verify_uart,w
  3428  00E5  0081               	movwf	1
  3429  00E6                     l1706:
  3430                           
  3431                           ;main.c: 93:         }
  3432  00E6  3001               	movlw	1
  3433  00E7  07E0               	addwf	verify_uart@i,f
  3434  00E8  3000               	movlw	0
  3435  00E9  3DE1               	addwfc	verify_uart@i+1,f
  3436  00EA                     l1708:
  3437  00EA  0861               	movf	verify_uart@i+1,w
  3438  00EB  3A80               	xorlw	128
  3439  00EC  00DC               	movwf	??_verify_uart
  3440  00ED  3080               	movlw	128
  3441  00EE  025C               	subwf	??_verify_uart,w
  3442  00EF  1D03               	skipz
  3443  00F0  28F3               	goto	u705
  3444  00F1  3008               	movlw	8
  3445  00F2  0260               	subwf	verify_uart@i,w
  3446  00F3                     u705:
  3447  00F3  1C03               	skipc
  3448  00F4  28F6               	goto	u701
  3449  00F5  28F7               	goto	u700
  3450  00F6                     u701:
  3451  00F6  28D9               	goto	l1704
  3452  00F7                     u700:
  3453  00F7  2918               	goto	l1720
  3454  00F8                     l1710:
  3455                           
  3456                           ;main.c: 98:                 printf("1");
  3457  00F8  3066               	movlw	low (STR_1| (0+32768))
  3458  00F9  00D8               	movwf	printf@fmt
  3459  00FA  3083               	movlw	high (STR_1| (0+32768))
  3460  00FB  00D9               	movwf	printf@fmt+1
  3461  00FC  3182  22E9  3180   	fcall	_printf
  3462                           
  3463                           ;main.c: 99:                 break;
  3464  00FF  292F               	goto	l304
  3465  0100                     l1712:
  3466                           
  3467                           ;main.c: 102:                 printf("2");
  3468  0100  3068               	movlw	low (STR_2| (0+32768))
  3469  0101  00D8               	movwf	printf@fmt
  3470  0102  3083               	movlw	high (STR_2| (0+32768))
  3471  0103  00D9               	movwf	printf@fmt+1
  3472  0104  3182  22E9  3180   	fcall	_printf
  3473                           
  3474                           ;main.c: 103:                 break;
  3475  0107  292F               	goto	l304
  3476  0108                     l1714:
  3477                           
  3478                           ;main.c: 106:                 printf("3");
  3479  0108  306A               	movlw	low (STR_3| (0+32768))
  3480  0109  00D8               	movwf	printf@fmt
  3481  010A  3083               	movlw	high (STR_3| (0+32768))
  3482  010B  00D9               	movwf	printf@fmt+1
  3483  010C  3182  22E9  3180   	fcall	_printf
  3484                           
  3485                           ;main.c: 107:                 break;
  3486  010F  292F               	goto	l304
  3487  0110                     l1716:
  3488                           
  3489                           ;main.c: 109:                 printf("Gecerli bir say? giriniz (1-3)");
  3490  0110  30B0               	movlw	low (STR_4| (0+32768))
  3491  0111  00D8               	movwf	printf@fmt
  3492  0112  3082               	movlw	high (STR_4| (0+32768))
  3493  0113  00D9               	movwf	printf@fmt+1
  3494  0114  3182  22E9  3180   	fcall	_printf
  3495                           
  3496                           ;main.c: 110:                 break;
  3497  0117  292F               	goto	l304
  3498  0118                     l1720:
  3499  0118  0140               	movlb	0	; select bank0
  3500  0119  085F               	movf	verify_uart@arr,w
  3501  011A  0086               	movwf	6
  3502  011B  0187               	clrf	7
  3503  011C  0801               	movf	1,w
  3504  011D  00DC               	movwf	??_verify_uart
  3505  011E  01DD               	clrf	??_verify_uart+1
  3506                           
  3507                           ; Switch on 2 bytes has been partitioned into a top level switch of size 1, and 1 sub-sw
      +                          itches
  3508                           ; Switch size 1, requested type "simple"
  3509                           ; Number of cases is 1, Range of values is 0 to 0
  3510                           ; switch strategies available:
  3511                           ; Name         Instructions Cycles
  3512                           ; simple_byte            4     3 (average)
  3513                           ; direct_byte            8     6 (fixed)
  3514                           ; jumptable            260     6 (fixed)
  3515                           ;	Chosen strategy is simple_byte
  3516  011F  085D               	movf	??_verify_uart+1,w
  3517  0120  3A00               	xorlw	0	; case 0
  3518  0121  1903               	skipnz
  3519  0122  2924               	goto	l1754
  3520  0123  2910               	goto	l1716
  3521  0124                     l1754:
  3522                           
  3523                           ; Switch size 1, requested type "simple"
  3524                           ; Number of cases is 3, Range of values is 49 to 51
  3525                           ; switch strategies available:
  3526                           ; Name         Instructions Cycles
  3527                           ; simple_byte           10     6 (average)
  3528                           ; direct_byte           15     9 (fixed)
  3529                           ; jumptable            263     9 (fixed)
  3530                           ;	Chosen strategy is simple_byte
  3531  0124  085C               	movf	??_verify_uart,w
  3532  0125  3A31               	xorlw	49	; case 49
  3533  0126  1903               	skipnz
  3534  0127  28F8               	goto	l1710
  3535  0128  3A03               	xorlw	3	; case 50
  3536  0129  1903               	skipnz
  3537  012A  2900               	goto	l1712
  3538  012B  3A01               	xorlw	1	; case 51
  3539  012C  1903               	skipnz
  3540  012D  2908               	goto	l1714
  3541  012E  2910               	goto	l1716
  3542  012F                     l304:
  3543  012F  0008               	return
  3544  0130                     __end_of_verify_uart:
  3545                           
  3546                           	psect	text2
  3547  02E9                     __ptext2:	
  3548 ;; *************** function _printf *****************
  3549 ;; Defined at:
  3550 ;;		line 5 in file "C:\Program Files\Microchip\xc8\v2.36\pic\sources\c99\common\printf.c"
  3551 ;; Parameters:    Size  Location     Type
  3552 ;;  fmt             2   16[BANK0 ] PTR const unsigned char 
  3553 ;;		 -> STR_4(31), STR_3(2), STR_2(2), STR_1(2), 
  3554 ;; Auto vars:     Size  Location     Type
  3555 ;;  ret             2    0        int 
  3556 ;;  ap              1   19[BANK0 ] PTR void [1]
  3557 ;;		 -> ?_printf(2), 
  3558 ;; Return value:  Size  Location     Type
  3559 ;;                  2   16[BANK0 ] int 
  3560 ;; Registers used:
  3561 ;;		wreg, fsr0l, fsr0h, fsr1l, fsr1h, status,2, status,0, pclath, cstack
  3562 ;; Tracked objects:
  3563 ;;		On entry : 0/0
  3564 ;;		On exit  : 0/0
  3565 ;;		Unchanged: 0/0
  3566 ;; Data sizes:     COMMON   BANK0   BANK1   BANK2   BANK3   BANK4   BANK5   BANK6   BANK7   BANK8   BANK9  BANK10  BANK1
      +1  BANK12  BANK13  BANK14  BANK15  BANK16  BANK17  BANK18  BANK19  BANK20  BANK21  BANK22  BANK23  BANK24  BANK25
  3567 ;;      Params:         0       2       0       0       0       0       0       0       0       0       0       0       
      +0       0       0       0       0       0       0       0       0       0       0       0       0       0       0
  3568 ;;      Locals:         0       1       0       0       0       0       0       0       0       0       0       0       
      +0       0       0       0       0       0       0       0       0       0       0       0       0       0       0
  3569 ;;      Temps:          0       1       0       0       0       0       0       0       0       0       0       0       
      +0       0       0       0       0       0       0       0       0       0       0       0       0       0       0
  3570 ;;      Totals:         0       4       0       0       0       0       0       0       0       0       0       0       
      +0       0       0       0       0       0       0       0       0       0       0       0       0       0       0
  3571 ;;Total ram usage:        4 bytes
  3572 ;; Hardware stack levels used: 1
  3573 ;; Hardware stack levels required when called: 9
  3574 ;; This function calls:
  3575 ;;		_vfprintf
  3576 ;; This function is called by:
  3577 ;;		_verify_uart
  3578 ;; This function uses a non-reentrant model
  3579 ;;
  3580                           
  3581  02E9                     _printf:	
  3582                           ;psect for function _printf
  3583                           
  3584  02E9                     l1684:	
  3585                           ;incstack = 0
  3586                           ; Regs used in _printf: [wreg-fsr1h+status,2+status,0+pclath+cstack]
  3587                           
  3588  02E9  305A               	movlw	(low ((?_printf| 0+2)))& (0+255)
  3589  02EA  0140               	movlb	0	; select bank0
  3590  02EB  00DA               	movwf	??_printf
  3591  02EC  085A               	movf	??_printf,w
  3592  02ED  00DB               	movwf	printf@ap
  3593  02EE                     l1686:
  3594  02EE  0859               	movf	printf@fmt+1,w
  3595  02EF  00D1               	movwf	vfprintf@fmt+1
  3596  02F0  0858               	movf	printf@fmt,w
  3597  02F1  00D0               	movwf	vfprintf@fmt
  3598  02F2  305B               	movlw	(low (printf@ap| 0))& (0+255)
  3599  02F3  00DA               	movwf	??_printf
  3600  02F4  085A               	movf	??_printf,w
  3601  02F5  00D2               	movwf	vfprintf@ap
  3602  02F6  3000               	movlw	0
  3603  02F7  3182  2266  3182   	fcall	_vfprintf
  3604  02FA                     l919:
  3605  02FA  0008               	return
  3606  02FB                     __end_of_printf:
  3607                           
  3608                           	psect	text3
  3609  0266                     __ptext3:	
  3610 ;; *************** function _vfprintf *****************
  3611 ;; Defined at:
  3612 ;;		line 1390 in file "C:\Program Files\Microchip\xc8\v2.36\pic\sources\c99\common\doprnt.c"
  3613 ;; Parameters:    Size  Location     Type
  3614 ;;  fp              1    wreg     PTR struct _IO_FILE
  3615 ;;		 -> NULL(0), 
  3616 ;;  fmt             2    8[BANK0 ] PTR const unsigned char 
  3617 ;;		 -> STR_4(31), STR_3(2), STR_2(2), STR_1(2), 
  3618 ;;  ap              1   10[BANK0 ] PTR PTR void 
  3619 ;;		 -> printf@ap(1), 
  3620 ;; Auto vars:     Size  Location     Type
  3621 ;;  fp              1   13[BANK0 ] PTR struct _IO_FILE
  3622 ;;		 -> NULL(0), 
  3623 ;;  cfmt            2   14[BANK0 ] PTR unsigned char 
  3624 ;;		 -> STR_4(31), STR_3(2), STR_2(2), STR_1(2), 
  3625 ;; Return value:  Size  Location     Type
  3626 ;;                  2    8[BANK0 ] int 
  3627 ;; Registers used:
  3628 ;;		wreg, fsr0l, fsr0h, fsr1l, fsr1h, status,2, status,0, pclath, cstack
  3629 ;; Tracked objects:
  3630 ;;		On entry : 0/0
  3631 ;;		On exit  : 0/0
  3632 ;;		Unchanged: 0/0
  3633 ;; Data sizes:     COMMON   BANK0   BANK1   BANK2   BANK3   BANK4   BANK5   BANK6   BANK7   BANK8   BANK9  BANK10  BANK1
      +1  BANK12  BANK13  BANK14  BANK15  BANK16  BANK17  BANK18  BANK19  BANK20  BANK21  BANK22  BANK23  BANK24  BANK25
  3634 ;;      Params:         0       3       0       0       0       0       0       0       0       0       0       0       
      +0       0       0       0       0       0       0       0       0       0       0       0       0       0       0
  3635 ;;      Locals:         0       3       0       0       0       0       0       0       0       0       0       0       
      +0       0       0       0       0       0       0       0       0       0       0       0       0       0       0
  3636 ;;      Temps:          0       2       0       0       0       0       0       0       0       0       0       0       
      +0       0       0       0       0       0       0       0       0       0       0       0       0       0       0
  3637 ;;      Totals:         0       8       0       0       0       0       0       0       0       0       0       0       
      +0       0       0       0       0       0       0       0       0       0       0       0       0       0       0
  3638 ;;Total ram usage:        8 bytes
  3639 ;; Hardware stack levels used: 1
  3640 ;; Hardware stack levels required when called: 8
  3641 ;; This function calls:
  3642 ;;		_vfpfcnvrt
  3643 ;; This function is called by:
  3644 ;;		_printf
  3645 ;; This function uses a non-reentrant model
  3646 ;;
  3647                           
  3648  0266                     _vfprintf:	
  3649                           ;psect for function _vfprintf
  3650                           
  3651                           
  3652                           ;incstack = 0
  3653                           ; Regs used in _vfprintf: [wreg-fsr1h+status,2+status,0+pclath+cstack]
  3654                           ;vfprintf@fp stored from wreg
  3655  0266  0140               	movlb	0	; select bank0
  3656  0267  00D5               	movwf	vfprintf@fp
  3657  0268                     l1672:
  3658                           
  3659                           ;C:\Program Files\Microchip\xc8\v2.36\pic\sources\c99\common\doprnt.c: 1390: int vfprint
      +                          f(FILE *fp, const char *fmt, va_list ap);C:\Program Files\Microchip\xc8\v2.36\pic\source
      +                          s\c99\common\doprnt.c: 1391: {;C:\Program Files\Microchip\xc8\v2.36\pic\sources\c99\comm
      +                          on\doprnt.c: 1393:     char *cfmt;;C:\Program Files\Microchip\xc8\v2.36\pic\sources\c99\
      +                          common\doprnt.c: 1395:     cfmt = (char *)fmt;
  3660  0268  0851               	movf	vfprintf@fmt+1,w
  3661  0269  00D7               	movwf	vfprintf@cfmt+1
  3662  026A  0850               	movf	vfprintf@fmt,w
  3663  026B  00D6               	movwf	vfprintf@cfmt
  3664  026C                     l1674:
  3665                           
  3666                           ;C:\Program Files\Microchip\xc8\v2.36\pic\sources\c99\common\doprnt.c: 1396:     nout = 
      +                          0;
  3667  026C  01B0               	clrf	_nout
  3668  026D  01B1               	clrf	_nout+1
  3669                           
  3670                           ;C:\Program Files\Microchip\xc8\v2.36\pic\sources\c99\common\doprnt.c: 1397:     while (
      +                          *cfmt) {
  3671  026E  2A80               	goto	l1678
  3672  026F                     l1676:
  3673                           
  3674                           ;C:\Program Files\Microchip\xc8\v2.36\pic\sources\c99\common\doprnt.c: 1398:         nou
      +                          t += vfpfcnvrt(fp, &cfmt, ap);
  3675  026F  3056               	movlw	(low (vfprintf@cfmt| 0))& (0+255)
  3676  0270  00D3               	movwf	??_vfprintf
  3677  0271  0853               	movf	??_vfprintf,w
  3678  0272  00C8               	movwf	vfpfcnvrt@fmt
  3679  0273  0852               	movf	vfprintf@ap,w
  3680  0274  00D4               	movwf	??_vfprintf+1
  3681  0275  0854               	movf	??_vfprintf+1,w
  3682  0276  00C9               	movwf	vfpfcnvrt@ap
  3683  0277  0855               	movf	vfprintf@fp,w
  3684  0278  3180  2042  3182   	fcall	_vfpfcnvrt
  3685  027B  0140               	movlb	0	; select bank0
  3686  027C  0848               	movf	?_vfpfcnvrt,w
  3687  027D  07B0               	addwf	_nout,f
  3688  027E  0849               	movf	?_vfpfcnvrt+1,w
  3689  027F  3DB1               	addwfc	_nout+1,f
  3690  0280                     l1678:
  3691                           
  3692                           ;C:\Program Files\Microchip\xc8\v2.36\pic\sources\c99\common\doprnt.c: 1397:     while (
      +                          *cfmt) {
  3693  0280  0856               	movf	vfprintf@cfmt,w
  3694  0281  0084               	movwf	4
  3695  0282  0857               	movf	vfprintf@cfmt+1,w
  3696  0283  0085               	movwf	5
  3697  0284  0012               	moviw fsr0++
  3698  0285  1D03               	btfss	3,2
  3699  0286  2A88               	goto	u671
  3700  0287  2A89               	goto	u670
  3701  0288                     u671:
  3702  0288  2A6F               	goto	l1676
  3703  0289                     u670:
  3704  0289                     l1680:
  3705                           
  3706                           ;C:\Program Files\Microchip\xc8\v2.36\pic\sources\c99\common\doprnt.c: 1400:     return 
      +                          nout;
  3707  0289  0831               	movf	_nout+1,w
  3708  028A  00D1               	movwf	?_vfprintf+1
  3709  028B  0830               	movf	_nout,w
  3710  028C  00D0               	movwf	?_vfprintf
  3711  028D                     l958:
  3712  028D  0008               	return
  3713  028E                     __end_of_vfprintf:
  3714                           
  3715                           	psect	text4
  3716  0042                     __ptext4:	
  3717 ;; *************** function _vfpfcnvrt *****************
  3718 ;; Defined at:
  3719 ;;		line 692 in file "C:\Program Files\Microchip\xc8\v2.36\pic\sources\c99\common\doprnt.c"
  3720 ;; Parameters:    Size  Location     Type
  3721 ;;  fp              1    wreg     PTR struct _IO_FILE
  3722 ;;		 -> NULL(0), 
  3723 ;;  fmt             1    0[BANK0 ] PTR PTR unsigned char 
  3724 ;;		 -> vfprintf@cfmt(2), 
  3725 ;;  ap              1    1[BANK0 ] PTR PTR void 
  3726 ;;		 -> printf@ap(1), 
  3727 ;; Auto vars:     Size  Location     Type
  3728 ;;  fp              1    7[BANK0 ] PTR struct _IO_FILE
  3729 ;;		 -> NULL(0), 
  3730 ;;  llu             8    0        unsigned long long 
  3731 ;;  ll              8    0        long long 
  3732 ;;  f               4    0        long long 
  3733 ;;  ct              3    0        unsigned char [3]
  3734 ;;  vp              2    0        PTR void 
  3735 ;;  i               2    0        int 
  3736 ;;  done            2    0        int 
  3737 ;;  cp              2    0        PTR unsigned char 
  3738 ;;  c               1    0        unsigned char 
  3739 ;; Return value:  Size  Location     Type
  3740 ;;                  2    0[BANK0 ] int 
  3741 ;; Registers used:
  3742 ;;		wreg, fsr0l, fsr0h, fsr1l, fsr1h, status,2, status,0, pclath, cstack
  3743 ;; Tracked objects:
  3744 ;;		On entry : 0/0
  3745 ;;		On exit  : 0/0
  3746 ;;		Unchanged: 0/0
  3747 ;; Data sizes:     COMMON   BANK0   BANK1   BANK2   BANK3   BANK4   BANK5   BANK6   BANK7   BANK8   BANK9  BANK10  BANK1
      +1  BANK12  BANK13  BANK14  BANK15  BANK16  BANK17  BANK18  BANK19  BANK20  BANK21  BANK22  BANK23  BANK24  BANK25
  3748 ;;      Params:         0       2       0       0       0       0       0       0       0       0       0       0       
      +0       0       0       0       0       0       0       0       0       0       0       0       0       0       0
  3749 ;;      Locals:         0       1       0       0       0       0       0       0       0       0       0       0       
      +0       0       0       0       0       0       0       0       0       0       0       0       0       0       0
  3750 ;;      Temps:          0       5       0       0       0       0       0       0       0       0       0       0       
      +0       0       0       0       0       0       0       0       0       0       0       0       0       0       0
  3751 ;;      Totals:         0       8       0       0       0       0       0       0       0       0       0       0       
      +0       0       0       0       0       0       0       0       0       0       0       0       0       0       0
  3752 ;;Total ram usage:        8 bytes
  3753 ;; Hardware stack levels used: 1
  3754 ;; Hardware stack levels required when called: 7
  3755 ;; This function calls:
  3756 ;;		_fputc
  3757 ;; This function is called by:
  3758 ;;		_vfprintf
  3759 ;; This function uses a non-reentrant model
  3760 ;;
  3761                           
  3762  0042                     _vfpfcnvrt:	
  3763                           ;psect for function _vfpfcnvrt
  3764                           
  3765                           
  3766                           ;incstack = 0
  3767                           ; Regs used in _vfpfcnvrt: [wreg-fsr1h+status,2+status,0+pclath+cstack]
  3768                           ;vfpfcnvrt@fp stored from wreg
  3769  0042  0140               	movlb	0	; select bank0
  3770  0043  00CF               	movwf	vfpfcnvrt@fp
  3771  0044                     l1640:
  3772                           
  3773                           ;C:\Program Files\Microchip\xc8\v2.36\pic\sources\c99\common\doprnt.c: 692: static int v
      +                          fpfcnvrt(FILE *fp, char *fmt[], va_list ap);C:\Program Files\Microchip\xc8\v2.36\pic\sou
      +                          rces\c99\common\doprnt.c: 693: {;C:\Program Files\Microchip\xc8\v2.36\pic\sources\c99\co
      +                          mmon\doprnt.c: 694:     char c, *cp, ct[3];;C:\Program Files\Microchip\xc8\v2.36\pic\sou
      +                          rces\c99\common\doprnt.c: 695:     int done, i;;C:\Program Files\Microchip\xc8\v2.36\pic
      +                          \sources\c99\common\doprnt.c: 696:     long long ll;;C:\Program Files\Microchip\xc8\v2.3
      +                          6\pic\sources\c99\common\doprnt.c: 697:     unsigned long long llu;
  3774  0044  0848               	movf	vfpfcnvrt@fmt,w
  3775  0045  0086               	movwf	6
  3776  0046  0187               	clrf	7
  3777  0047  3F40               	moviw [0]fsr1
  3778  0048  00CA               	movwf	??_vfpfcnvrt
  3779  0049  3F41               	moviw [1]fsr1
  3780  004A  00CB               	movwf	??_vfpfcnvrt+1
  3781  004B  084A               	movf	??_vfpfcnvrt,w
  3782  004C  0084               	movwf	4
  3783  004D  084B               	movf	??_vfpfcnvrt+1,w
  3784  004E  0085               	movwf	5
  3785  004F  0012               	moviw fsr0++
  3786  0050  3A25               	xorlw	37
  3787  0051  1D03               	btfss	3,2
  3788  0052  2854               	goto	u651
  3789  0053  2855               	goto	u650
  3790  0054                     u651:
  3791  0054  289A               	goto	l1664
  3792  0055                     u650:
  3793  0055                     l1642:
  3794                           
  3795                           ;C:\Program Files\Microchip\xc8\v2.36\pic\sources\c99\common\doprnt.c: 703:         ++*f
      +                          mt;
  3796  0055  0848               	movf	vfpfcnvrt@fmt,w
  3797  0056  0086               	movwf	6
  3798  0057  0187               	clrf	7
  3799  0058  3001               	movlw	1
  3800  0059  0781               	addwf	1,f
  3801  005A  3141               	addfsr 1,1
  3802  005B  1803               	skipnc
  3803  005C  0A81               	incf	1,f
  3804  005D                     l1644:
  3805                           
  3806                           ;C:\Program Files\Microchip\xc8\v2.36\pic\sources\c99\common\doprnt.c: 705:         flag
      +                          s = width = 0;
  3807  005D  01B2               	clrf	_width
  3808  005E  01B3               	clrf	_width+1
  3809  005F  01B6               	clrf	_flags
  3810  0060  01B7               	clrf	_flags+1
  3811  0061                     l1646:
  3812                           
  3813                           ;C:\Program Files\Microchip\xc8\v2.36\pic\sources\c99\common\doprnt.c: 706:         prec
      +                           = -1;
  3814  0061  30FF               	movlw	255
  3815  0062  00B4               	movwf	_prec
  3816  0063  30FF               	movlw	255
  3817  0064  00B5               	movwf	_prec+1
  3818  0065                     l1648:
  3819                           
  3820                           ;C:\Program Files\Microchip\xc8\v2.36\pic\sources\c99\common\doprnt.c: 1372:         if 
      +                          ((*fmt)[0] == '%') {
  3821  0065  0848               	movf	vfpfcnvrt@fmt,w
  3822  0066  0086               	movwf	6
  3823  0067  0187               	clrf	7
  3824  0068  3F40               	moviw [0]fsr1
  3825  0069  00CA               	movwf	??_vfpfcnvrt
  3826  006A  3F41               	moviw [1]fsr1
  3827  006B  00CB               	movwf	??_vfpfcnvrt+1
  3828  006C  084A               	movf	??_vfpfcnvrt,w
  3829  006D  0084               	movwf	4
  3830  006E  084B               	movf	??_vfpfcnvrt+1,w
  3831  006F  0085               	movwf	5
  3832  0070  0012               	moviw fsr0++
  3833  0071  3A25               	xorlw	37
  3834  0072  1D03               	btfss	3,2
  3835  0073  2875               	goto	u661
  3836  0074  2876               	goto	u660
  3837  0075                     u661:
  3838  0075  288F               	goto	l1658
  3839  0076                     u660:
  3840  0076                     l1650:
  3841                           
  3842                           ;C:\Program Files\Microchip\xc8\v2.36\pic\sources\c99\common\doprnt.c: 1373:            
      +                           ++*fmt;
  3843  0076  0848               	movf	vfpfcnvrt@fmt,w
  3844  0077  0086               	movwf	6
  3845  0078  0187               	clrf	7
  3846  0079  3001               	movlw	1
  3847  007A  0781               	addwf	1,f
  3848  007B  3141               	addfsr 1,1
  3849  007C  1803               	skipnc
  3850  007D  0A81               	incf	1,f
  3851  007E                     l1652:
  3852                           
  3853                           ;C:\Program Files\Microchip\xc8\v2.36\pic\sources\c99\common\doprnt.c: 1374:            
      +                           fputc((int)'%', fp);
  3854  007E  3025               	movlw	37
  3855  007F  00F4               	movwf	fputc@c
  3856  0080  3000               	movlw	0
  3857  0081  00F5               	movwf	fputc@c+1
  3858  0082  084F               	movf	vfpfcnvrt@fp,w
  3859  0083  00CA               	movwf	??_vfpfcnvrt
  3860  0084  084A               	movf	??_vfpfcnvrt,w
  3861  0085  00F6               	movwf	fputc@fp
  3862  0086  3181  2130  3180   	fcall	_fputc
  3863  0089                     l1654:
  3864                           
  3865                           ;C:\Program Files\Microchip\xc8\v2.36\pic\sources\c99\common\doprnt.c: 1375:            
      +                           return 1;
  3866  0089  3001               	movlw	1
  3867  008A  0140               	movlb	0	; select bank0
  3868  008B  00C8               	movwf	?_vfpfcnvrt
  3869  008C  3000               	movlw	0
  3870  008D  00C9               	movwf	?_vfpfcnvrt+1
  3871  008E  28BD               	goto	l952
  3872  008F                     l1658:
  3873                           
  3874                           ;C:\Program Files\Microchip\xc8\v2.36\pic\sources\c99\common\doprnt.c: 1379:         ++*
      +                          fmt;
  3875  008F  0848               	movf	vfpfcnvrt@fmt,w
  3876  0090  0086               	movwf	6
  3877  0091  0187               	clrf	7
  3878  0092  3001               	movlw	1
  3879  0093  0781               	addwf	1,f
  3880  0094  3141               	addfsr 1,1
  3881  0095  1803               	skipnc
  3882  0096  0A81               	incf	1,f
  3883  0097                     l1660:
  3884                           
  3885                           ;C:\Program Files\Microchip\xc8\v2.36\pic\sources\c99\common\doprnt.c: 1380:         ret
      +                          urn 0;
  3886  0097  01C8               	clrf	?_vfpfcnvrt
  3887  0098  01C9               	clrf	?_vfpfcnvrt+1
  3888  0099  28BD               	goto	l952
  3889  009A                     l1664:
  3890                           
  3891                           ;C:\Program Files\Microchip\xc8\v2.36\pic\sources\c99\common\doprnt.c: 1384:     fputc((
      +                          int)(*fmt)[0], fp);
  3892  009A  0848               	movf	vfpfcnvrt@fmt,w
  3893  009B  0086               	movwf	6
  3894  009C  0187               	clrf	7
  3895  009D  3F40               	moviw [0]fsr1
  3896  009E  00CA               	movwf	??_vfpfcnvrt
  3897  009F  3F41               	moviw [1]fsr1
  3898  00A0  00CB               	movwf	??_vfpfcnvrt+1
  3899  00A1  084A               	movf	??_vfpfcnvrt,w
  3900  00A2  0084               	movwf	4
  3901  00A3  084B               	movf	??_vfpfcnvrt+1,w
  3902  00A4  0085               	movwf	5
  3903  00A5  0800               	movf	0,w	;code access
  3904  00A6  00CC               	movwf	??_vfpfcnvrt+2
  3905  00A7  01CD               	clrf	??_vfpfcnvrt+3
  3906  00A8  084C               	movf	??_vfpfcnvrt+2,w
  3907  00A9  00F4               	movwf	fputc@c
  3908  00AA  084D               	movf	??_vfpfcnvrt+3,w
  3909  00AB  00F5               	movwf	fputc@c+1
  3910  00AC  084F               	movf	vfpfcnvrt@fp,w
  3911  00AD  00CE               	movwf	??_vfpfcnvrt+4
  3912  00AE  084E               	movf	??_vfpfcnvrt+4,w
  3913  00AF  00F6               	movwf	fputc@fp
  3914  00B0  3181  2130  3180   	fcall	_fputc
  3915  00B3                     l1666:
  3916                           
  3917                           ;C:\Program Files\Microchip\xc8\v2.36\pic\sources\c99\common\doprnt.c: 1385:     ++*fmt;
  3918  00B3  0140               	movlb	0	; select bank0
  3919  00B4  0848               	movf	vfpfcnvrt@fmt,w
  3920  00B5  0086               	movwf	6
  3921  00B6  0187               	clrf	7
  3922  00B7  3001               	movlw	1
  3923  00B8  0781               	addwf	1,f
  3924  00B9  3141               	addfsr 1,1
  3925  00BA  1803               	skipnc
  3926  00BB  0A81               	incf	1,f
  3927  00BC  2889               	goto	l1654
  3928  00BD                     l952:
  3929  00BD  0008               	return
  3930  00BE                     __end_of_vfpfcnvrt:
  3931                           
  3932                           	psect	text5
  3933  0130                     __ptext5:	
  3934 ;; *************** function _fputc *****************
  3935 ;; Defined at:
  3936 ;;		line 8 in file "C:\Program Files\Microchip\xc8\v2.36\pic\sources\c99\common\nf_fputc.c"
  3937 ;; Parameters:    Size  Location     Type
  3938 ;;  c               2    4[COMMON] int 
  3939 ;;  fp              1    6[COMMON] PTR struct _IO_FILE
  3940 ;;		 -> NULL(0), 
  3941 ;; Auto vars:     Size  Location     Type
  3942 ;;		None
  3943 ;; Return value:  Size  Location     Type
  3944 ;;                  2    4[COMMON] int 
  3945 ;; Registers used:
  3946 ;;		wreg, fsr1l, fsr1h, status,2, status,0, pclath, cstack
  3947 ;; Tracked objects:
  3948 ;;		On entry : 0/0
  3949 ;;		On exit  : 0/0
  3950 ;;		Unchanged: 0/0
  3951 ;; Data sizes:     COMMON   BANK0   BANK1   BANK2   BANK3   BANK4   BANK5   BANK6   BANK7   BANK8   BANK9  BANK10  BANK1
      +1  BANK12  BANK13  BANK14  BANK15  BANK16  BANK17  BANK18  BANK19  BANK20  BANK21  BANK22  BANK23  BANK24  BANK25
  3952 ;;      Params:         3       0       0       0       0       0       0       0       0       0       0       0       
      +0       0       0       0       0       0       0       0       0       0       0       0       0       0       0
  3953 ;;      Locals:         0       0       0       0       0       0       0       0       0       0       0       0       
      +0       0       0       0       0       0       0       0       0       0       0       0       0       0       0
  3954 ;;      Temps:          5       0       0       0       0       0       0       0       0       0       0       0       
      +0       0       0       0       0       0       0       0       0       0       0       0       0       0       0
  3955 ;;      Totals:         8       0       0       0       0       0       0       0       0       0       0       0       
      +0       0       0       0       0       0       0       0       0       0       0       0       0       0       0
  3956 ;;Total ram usage:        8 bytes
  3957 ;; Hardware stack levels used: 1
  3958 ;; Hardware stack levels required when called: 6
  3959 ;; This function calls:
  3960 ;;		_putch
  3961 ;; This function is called by:
  3962 ;;		_vfpfcnvrt
  3963 ;; This function uses a non-reentrant model
  3964 ;;
  3965                           
  3966  0130                     _fputc:	
  3967                           ;psect for function _fputc
  3968                           
  3969  0130                     l1626:	
  3970                           ;incstack = 0
  3971                           ; Regs used in _fputc: [wreg+fsr1l+fsr1h+status,2+status,0+pclath+cstack]
  3972                           
  3973  0130  0876               	movf	fputc@fp,w
  3974  0131  1903               	btfsc	3,2
  3975  0132  2934               	goto	u611
  3976  0133  2935               	goto	u610
  3977  0134                     u611:
  3978  0134  293A               	goto	l1630
  3979  0135                     u610:
  3980  0135                     l1628:
  3981  0135  0876               	movf	fputc@fp,w
  3982  0136  1D03               	btfss	3,2
  3983  0137  2939               	goto	u621
  3984  0138  293A               	goto	u620
  3985  0139                     u621:
  3986  0139  293F               	goto	l1632
  3987  013A                     u620:
  3988  013A                     l1630:
  3989  013A  0874               	movf	fputc@c,w
  3990  013B  3183  233A  3181   	fcall	_putch
  3991  013E  2970               	goto	l970
  3992  013F                     l1632:
  3993  013F  0876               	movf	fputc@fp,w
  3994  0140  3E08               	addlw	8
  3995  0141  0086               	movwf	6
  3996  0142  0187               	clrf	7
  3997  0143  0016               	moviw fsr1++
  3998  0144  0401               	iorwf	1,w
  3999  0145  1903               	btfsc	3,2
  4000  0146  2948               	goto	u631
  4001  0147  2949               	goto	u630
  4002  0148                     u631:
  4003  0148  2967               	goto	l1636
  4004  0149                     u630:
  4005  0149                     l1634:
  4006  0149  0876               	movf	fputc@fp,w
  4007  014A  3E08               	addlw	8
  4008  014B  0086               	movwf	6
  4009  014C  0187               	clrf	7
  4010  014D  3F40               	moviw [0]fsr1
  4011  014E  00F7               	movwf	??_fputc
  4012  014F  3F41               	moviw [1]fsr1
  4013  0150  00F8               	movwf	??_fputc+1
  4014  0151  0876               	movf	fputc@fp,w
  4015  0152  3E02               	addlw	2
  4016  0153  0086               	movwf	6
  4017  0154  0187               	clrf	7
  4018  0155  3F40               	moviw [0]fsr1
  4019  0156  00F9               	movwf	??_fputc+2
  4020  0157  3F41               	moviw [1]fsr1
  4021  0158  00FA               	movwf	??_fputc+3
  4022  0159  087A               	movf	??_fputc+3,w
  4023  015A  3A80               	xorlw	128
  4024  015B  00FB               	movwf	??_fputc+4
  4025  015C  0878               	movf	??_fputc+1,w
  4026  015D  3A80               	xorlw	128
  4027  015E  027B               	subwf	??_fputc+4,w
  4028  015F  1D03               	skipz
  4029  0160  2963               	goto	u645
  4030  0161  0877               	movf	??_fputc,w
  4031  0162  0279               	subwf	??_fputc+2,w
  4032  0163                     u645:
  4033  0163  1803               	skipnc
  4034  0164  2966               	goto	u641
  4035  0165  2967               	goto	u640
  4036  0166                     u641:
  4037  0166  2970               	goto	l970
  4038  0167                     u640:
  4039  0167                     l1636:
  4040  0167  0876               	movf	fputc@fp,w
  4041  0168  3E02               	addlw	2
  4042  0169  0086               	movwf	6
  4043  016A  0187               	clrf	7
  4044  016B  3001               	movlw	1
  4045  016C  0781               	addwf	1,f
  4046  016D  3141               	addfsr 1,1
  4047  016E  1803               	skipnc
  4048  016F  0A81               	incf	1,f
  4049  0170                     l970:
  4050  0170  0008               	return
  4051  0171                     __end_of_fputc:
  4052                           
  4053                           	psect	text6
  4054  033A                     __ptext6:	
  4055 ;; *************** function _putch *****************
  4056 ;; Defined at:
  4057 ;;		line 201 in file "mcc_generated_files/eusart1.c"
  4058 ;; Parameters:    Size  Location     Type
  4059 ;;  txData          1    wreg     unsigned char 
  4060 ;; Auto vars:     Size  Location     Type
  4061 ;;  txData          1    3[COMMON] unsigned char 
  4062 ;; Return value:  Size  Location     Type
  4063 ;;                  1    wreg      void 
  4064 ;; Registers used:
  4065 ;;		wreg, fsr1l, fsr1h, status,2, status,0, pclath, cstack
  4066 ;; Tracked objects:
  4067 ;;		On entry : 0/0
  4068 ;;		On exit  : 0/0
  4069 ;;		Unchanged: 0/0
  4070 ;; Data sizes:     COMMON   BANK0   BANK1   BANK2   BANK3   BANK4   BANK5   BANK6   BANK7   BANK8   BANK9  BANK10  BANK1
      +1  BANK12  BANK13  BANK14  BANK15  BANK16  BANK17  BANK18  BANK19  BANK20  BANK21  BANK22  BANK23  BANK24  BANK25
  4071 ;;      Params:         0       0       0       0       0       0       0       0       0       0       0       0       
      +0       0       0       0       0       0       0       0       0       0       0       0       0       0       0
  4072 ;;      Locals:         1       0       0       0       0       0       0       0       0       0       0       0       
      +0       0       0       0       0       0       0       0       0       0       0       0       0       0       0
  4073 ;;      Temps:          0       0       0       0       0       0       0       0       0       0       0       0       
      +0       0       0       0       0       0       0       0       0       0       0       0       0       0       0
  4074 ;;      Totals:         1       0       0       0       0       0       0       0       0       0       0       0       
      +0       0       0       0       0       0       0       0       0       0       0       0       0       0       0
  4075 ;;Total ram usage:        1 bytes
  4076 ;; Hardware stack levels used: 1
  4077 ;; Hardware stack levels required when called: 5
  4078 ;; This function calls:
  4079 ;;		_EUSART1_Write
  4080 ;; This function is called by:
  4081 ;;		_fputc
  4082 ;; This function uses a non-reentrant model
  4083 ;;
  4084                           
  4085  033A                     _putch:	
  4086                           ;psect for function _putch
  4087                           
  4088                           
  4089                           ;incstack = 0
  4090                           ; Regs used in _putch: [wreg+fsr1l+fsr1h+status,2+status,0+pclath+cstack]
  4091                           ;putch@txData stored from wreg
  4092  033A  00F3               	movwf	putch@txData
  4093  033B                     l1624:
  4094                           
  4095                           ;mcc_generated_files/eusart1.c: 201: void putch(char txData);mcc_generated_files/eusart1
      +                          .c: 202: {;mcc_generated_files/eusart1.c: 203:     EUSART1_Write(txData);
  4096  033B  0873               	movf	putch@txData,w
  4097  033C  3181  21E9  3183   	fcall	_EUSART1_Write
  4098  033F                     l182:
  4099  033F  0008               	return
  4100  0340                     __end_of_putch:
  4101                           
  4102                           	psect	text7
  4103  01E9                     __ptext7:	
  4104 ;; *************** function _EUSART1_Write *****************
  4105 ;; Defined at:
  4106 ;;		line 173 in file "mcc_generated_files/eusart1.c"
  4107 ;; Parameters:    Size  Location     Type
  4108 ;;  txData          1    wreg     unsigned char 
  4109 ;; Auto vars:     Size  Location     Type
  4110 ;;  txData          1    2[COMMON] unsigned char 
  4111 ;; Return value:  Size  Location     Type
  4112 ;;                  1    wreg      void 
  4113 ;; Registers used:
  4114 ;;		wreg, fsr1l, fsr1h, status,2, status,0
  4115 ;; Tracked objects:
  4116 ;;		On entry : 0/0
  4117 ;;		On exit  : 0/0
  4118 ;;		Unchanged: 0/0
  4119 ;; Data sizes:     COMMON   BANK0   BANK1   BANK2   BANK3   BANK4   BANK5   BANK6   BANK7   BANK8   BANK9  BANK10  BANK1
      +1  BANK12  BANK13  BANK14  BANK15  BANK16  BANK17  BANK18  BANK19  BANK20  BANK21  BANK22  BANK23  BANK24  BANK25
  4120 ;;      Params:         0       0       0       0       0       0       0       0       0       0       0       0       
      +0       0       0       0       0       0       0       0       0       0       0       0       0       0       0
  4121 ;;      Locals:         1       0       0       0       0       0       0       0       0       0       0       0       
      +0       0       0       0       0       0       0       0       0       0       0       0       0       0       0
  4122 ;;      Temps:          1       0       0       0       0       0       0       0       0       0       0       0       
      +0       0       0       0       0       0       0       0       0       0       0       0       0       0       0
  4123 ;;      Totals:         2       0       0       0       0       0       0       0       0       0       0       0       
      +0       0       0       0       0       0       0       0       0       0       0       0       0       0       0
  4124 ;;Total ram usage:        2 bytes
  4125 ;; Hardware stack levels used: 1
  4126 ;; Hardware stack levels required when called: 4
  4127 ;; This function calls:
  4128 ;;		Nothing
  4129 ;; This function is called by:
  4130 ;;		_putch
  4131 ;; This function uses a non-reentrant model
  4132 ;;
  4133                           
  4134  01E9                     _EUSART1_Write:	
  4135                           ;psect for function _EUSART1_Write
  4136                           
  4137                           
  4138                           ;incstack = 0
  4139                           ; Regs used in _EUSART1_Write: [wreg+fsr1l+fsr1h+status,2+status,0]
  4140                           ;EUSART1_Write@txData stored from wreg
  4141  01E9  00F2               	movwf	EUSART1_Write@txData
  4142  01EA                     l1606:
  4143  01EA                     l1608:	
  4144                           ;mcc_generated_files/eusart1.c: 173: void EUSART1_Write(uint8_t txData);mcc_generated_fi
      +                          les/eusart1.c: 174: {;mcc_generated_files/eusart1.c: 175:     while(0 == eusart1TxBuffer
      +                          Remaining)
  4145                           
  4146                           
  4147                           ;mcc_generated_files/eusart1.c: 175:     while(0 == eusart1TxBufferRemaining)
  4148  01EA  0140               	movlb	0	; select bank0
  4149  01EB  0845               	movf	_eusart1TxBufferRemaining,w	;volatile
  4150  01EC  1903               	btfsc	3,2
  4151  01ED  29EF               	goto	u581
  4152  01EE  29F0               	goto	u580
  4153  01EF                     u581:
  4154  01EF  29EA               	goto	l1608
  4155  01F0                     u580:
  4156  01F0                     l172:
  4157                           
  4158                           ;mcc_generated_files/eusart1.c: 179:     if(0 == PIE3bits.TX1IE)
  4159  01F0  014E               	movlb	14	; select bank14
  4160  01F1  1A19               	btfsc	25,4	;volatile
  4161  01F2  29F4               	goto	u591
  4162  01F3  29F5               	goto	u590
  4163  01F4                     u591:
  4164  01F4  29F9               	goto	l173
  4165  01F5                     u590:
  4166  01F5                     l1610:
  4167                           
  4168                           ;mcc_generated_files/eusart1.c: 180:     {;mcc_generated_files/eusart1.c: 181:         T
      +                          X1REG = txData;
  4169  01F5  0872               	movf	EUSART1_Write@txData,w
  4170  01F6  0142               	movlb	2	; select bank2
  4171  01F7  009A               	movwf	26	;volatile
  4172                           
  4173                           ;mcc_generated_files/eusart1.c: 182:     }
  4174  01F8  2A10               	goto	l1622
  4175  01F9                     l173:	
  4176                           ;mcc_generated_files/eusart1.c: 183:     else
  4177                           
  4178                           
  4179                           ;mcc_generated_files/eusart1.c: 184:     {;mcc_generated_files/eusart1.c: 185:         P
      +                          IE3bits.TX1IE = 0;
  4180  01F9  1219               	bcf	25,4	;volatile
  4181  01FA                     l1612:
  4182                           
  4183                           ;mcc_generated_files/eusart1.c: 186:         eusart1TxBuffer[eusart1TxHead++] = txData;
  4184  01FA  0872               	movf	EUSART1_Write@txData,w
  4185  01FB  00F1               	movwf	??_EUSART1_Write
  4186  01FC  0140               	movlb	0	; select bank0
  4187  01FD  0847               	movf	_eusart1TxHead,w
  4188  01FE  3E28               	addlw	(low (_eusart1TxBuffer| 0))& (0+255)
  4189  01FF  0086               	movwf	6
  4190  0200  0187               	clrf	7
  4191  0201  0871               	movf	??_EUSART1_Write,w
  4192  0202  0081               	movwf	1
  4193  0203                     l1614:
  4194  0203  3001               	movlw	1
  4195  0204  00F1               	movwf	??_EUSART1_Write
  4196  0205  0871               	movf	??_EUSART1_Write,w
  4197  0206  07C7               	addwf	_eusart1TxHead,f	;volatile
  4198  0207                     l1616:
  4199                           
  4200                           ;mcc_generated_files/eusart1.c: 187:         if(sizeof(eusart1TxBuffer) <= eusart1TxHead
      +                          )
  4201  0207  3008               	movlw	8
  4202  0208  0247               	subwf	_eusart1TxHead,w	;volatile
  4203  0209  1C03               	skipc
  4204  020A  2A0C               	goto	u601
  4205  020B  2A0D               	goto	u600
  4206  020C                     u601:
  4207  020C  2A0E               	goto	l1620
  4208  020D                     u600:
  4209  020D                     l1618:
  4210                           
  4211                           ;mcc_generated_files/eusart1.c: 188:         {;mcc_generated_files/eusart1.c: 189:      
      +                                 eusart1TxHead = 0;
  4212  020D  01C7               	clrf	_eusart1TxHead	;volatile
  4213  020E                     l1620:
  4214                           
  4215                           ;mcc_generated_files/eusart1.c: 191:         eusart1TxBufferRemaining--;
  4216  020E  3001               	movlw	1
  4217  020F  02C5               	subwf	_eusart1TxBufferRemaining,f	;volatile
  4218  0210                     l1622:
  4219                           
  4220                           ;mcc_generated_files/eusart1.c: 193:     PIE3bits.TX1IE = 1;
  4221  0210  014E               	movlb	14	; select bank14
  4222  0211  1619               	bsf	25,4	;volatile
  4223  0212                     l176:
  4224  0212  0008               	return
  4225  0213                     __end_of_EUSART1_Write:
  4226                           
  4227                           	psect	text8
  4228  032B                     __ptext8:	
  4229 ;; *************** function _EUSART1_is_rx_ready *****************
  4230 ;; Defined at:
  4231 ;;		line 137 in file "mcc_generated_files/eusart1.c"
  4232 ;; Parameters:    Size  Location     Type
  4233 ;;		None
  4234 ;; Auto vars:     Size  Location     Type
  4235 ;;		None
  4236 ;; Return value:  Size  Location     Type
  4237 ;;                  1    wreg      _Bool 
  4238 ;; Registers used:
  4239 ;;		wreg, status,2, status,0
  4240 ;; Tracked objects:
  4241 ;;		On entry : 0/0
  4242 ;;		On exit  : 0/0
  4243 ;;		Unchanged: 0/0
  4244 ;; Data sizes:     COMMON   BANK0   BANK1   BANK2   BANK3   BANK4   BANK5   BANK6   BANK7   BANK8   BANK9  BANK10  BANK1
      +1  BANK12  BANK13  BANK14  BANK15  BANK16  BANK17  BANK18  BANK19  BANK20  BANK21  BANK22  BANK23  BANK24  BANK25
  4245 ;;      Params:         0       0       0       0       0       0       0       0       0       0       0       0       
      +0       0       0       0       0       0       0       0       0       0       0       0       0       0       0
  4246 ;;      Locals:         0       0       0       0       0       0       0       0       0       0       0       0       
      +0       0       0       0       0       0       0       0       0       0       0       0       0       0       0
  4247 ;;      Temps:          0       0       0       0       0       0       0       0       0       0       0       0       
      +0       0       0       0       0       0       0       0       0       0       0       0       0       0       0
  4248 ;;      Totals:         0       0       0       0       0       0       0       0       0       0       0       0       
      +0       0       0       0       0       0       0       0       0       0       0       0       0       0       0
  4249 ;;Total ram usage:        0 bytes
  4250 ;; Hardware stack levels used: 1
  4251 ;; Hardware stack levels required when called: 4
  4252 ;; This function calls:
  4253 ;;		Nothing
  4254 ;; This function is called by:
  4255 ;;		_verify_uart
  4256 ;; This function uses a non-reentrant model
  4257 ;;
  4258                           
  4259  032B                     _EUSART1_is_rx_ready:	
  4260                           ;psect for function _EUSART1_is_rx_ready
  4261                           
  4262  032B                     l1450:	
  4263                           ;incstack = 0
  4264                           ; Regs used in _EUSART1_is_rx_ready: [wreg+status,2+status,0]
  4265                           
  4266                           
  4267                           ;mcc_generated_files/eusart1.c: 139:     return (eusart1RxCount ? 1 : 0);
  4268  032B  0140               	movlb	0	; select bank0
  4269  032C  0843               	movf	_eusart1RxCount,w	;volatile
  4270  032D  1D03               	btfss	3,2
  4271  032E  2B30               	goto	u411
  4272  032F  2B32               	goto	u410
  4273  0330                     u411:
  4274  0330  3001               	movlw	1
  4275  0331  2B33               	goto	u420
  4276  0332                     u410:
  4277  0332  3000               	movlw	0
  4278  0333                     u420:
  4279  0333                     l154:
  4280  0333  0008               	return
  4281  0334                     __end_of_EUSART1_is_rx_ready:
  4282                           
  4283                           	psect	text9
  4284  0213                     __ptext9:	
  4285 ;; *************** function _EUSART1_Read *****************
  4286 ;; Defined at:
  4287 ;;		line 151 in file "mcc_generated_files/eusart1.c"
  4288 ;; Parameters:    Size  Location     Type
  4289 ;;		None
  4290 ;; Auto vars:     Size  Location     Type
  4291 ;;  readValue       1    2[COMMON] unsigned char 
  4292 ;; Return value:  Size  Location     Type
  4293 ;;                  1    wreg      unsigned char 
  4294 ;; Registers used:
  4295 ;;		wreg, fsr1l, fsr1h, status,2, status,0
  4296 ;; Tracked objects:
  4297 ;;		On entry : 0/0
  4298 ;;		On exit  : 0/0
  4299 ;;		Unchanged: 0/0
  4300 ;; Data sizes:     COMMON   BANK0   BANK1   BANK2   BANK3   BANK4   BANK5   BANK6   BANK7   BANK8   BANK9  BANK10  BANK1
      +1  BANK12  BANK13  BANK14  BANK15  BANK16  BANK17  BANK18  BANK19  BANK20  BANK21  BANK22  BANK23  BANK24  BANK25
  4301 ;;      Params:         0       0       0       0       0       0       0       0       0       0       0       0       
      +0       0       0       0       0       0       0       0       0       0       0       0       0       0       0
  4302 ;;      Locals:         1       0       0       0       0       0       0       0       0       0       0       0       
      +0       0       0       0       0       0       0       0       0       0       0       0       0       0       0
  4303 ;;      Temps:          1       0       0       0       0       0       0       0       0       0       0       0       
      +0       0       0       0       0       0       0       0       0       0       0       0       0       0       0
  4304 ;;      Totals:         2       0       0       0       0       0       0       0       0       0       0       0       
      +0       0       0       0       0       0       0       0       0       0       0       0       0       0       0
  4305 ;;Total ram usage:        2 bytes
  4306 ;; Hardware stack levels used: 1
  4307 ;; Hardware stack levels required when called: 4
  4308 ;; This function calls:
  4309 ;;		Nothing
  4310 ;; This function is called by:
  4311 ;;		_verify_uart
  4312 ;;		_getch
  4313 ;; This function uses a non-reentrant model
  4314 ;;
  4315                           
  4316  0213                     _EUSART1_Read:	
  4317                           ;psect for function _EUSART1_Read
  4318                           
  4319  0213                     l1454:	
  4320                           ;incstack = 0
  4321                           ; Regs used in _EUSART1_Read: [wreg+fsr1l+fsr1h+status,2+status,0]
  4322                           
  4323  0213                     l1456:	
  4324                           ;mcc_generated_files/eusart1.c: 155:     while(0 == eusart1RxCount)
  4325                           
  4326                           
  4327                           ;mcc_generated_files/eusart1.c: 155:     while(0 == eusart1RxCount)
  4328  0213  0140               	movlb	0	; select bank0
  4329  0214  0843               	movf	_eusart1RxCount,w	;volatile
  4330  0215  1903               	btfsc	3,2
  4331  0216  2A18               	goto	u431
  4332  0217  2A19               	goto	u430
  4333  0218                     u431:
  4334  0218  2A13               	goto	l1456
  4335  0219                     u430:
  4336  0219                     l1458:
  4337                           
  4338                           ;mcc_generated_files/eusart1.c: 159:     eusart1RxLastError = eusart1RxStatusBuffer[eusa
      +                          rt1RxTail];
  4339  0219  0844               	movf	_eusart1RxTail,w	;volatile
  4340  021A  3E20               	addlw	(low (_eusart1RxStatusBuffer| 0))& (0+255)
  4341  021B  0086               	movwf	6
  4342  021C  0187               	clrf	7
  4343  021D  0801               	movf	1,w
  4344  021E  00F1               	movwf	??_EUSART1_Read
  4345  021F  0871               	movf	??_EUSART1_Read,w
  4346  0220  00C2               	movwf	_eusart1RxLastError	;volatile
  4347                           
  4348                           ;mcc_generated_files/eusart1.c: 161:     readValue = eusart1RxBuffer[eusart1RxTail++];
  4349  0221  0844               	movf	_eusart1RxTail,w
  4350  0222  3EC0               	addlw	(low (_eusart1RxBuffer| 0))& (0+255)
  4351  0223  0086               	movwf	6
  4352  0224  0187               	clrf	7
  4353  0225  0801               	movf	1,w
  4354  0226  00F1               	movwf	??_EUSART1_Read
  4355  0227  0871               	movf	??_EUSART1_Read,w
  4356  0228  00F2               	movwf	EUSART1_Read@readValue
  4357  0229                     l1460:
  4358  0229  3001               	movlw	1
  4359  022A  00F1               	movwf	??_EUSART1_Read
  4360  022B  0871               	movf	??_EUSART1_Read,w
  4361  022C  07C4               	addwf	_eusart1RxTail,f	;volatile
  4362  022D                     l1462:
  4363                           
  4364                           ;mcc_generated_files/eusart1.c: 162:     if(sizeof(eusart1RxBuffer) <= eusart1RxTail)
  4365  022D  3008               	movlw	8
  4366  022E  0244               	subwf	_eusart1RxTail,w	;volatile
  4367  022F  1C03               	skipc
  4368  0230  2A32               	goto	u441
  4369  0231  2A33               	goto	u440
  4370  0232                     u441:
  4371  0232  2A34               	goto	l1466
  4372  0233                     u440:
  4373  0233                     l1464:
  4374                           
  4375                           ;mcc_generated_files/eusart1.c: 163:     {;mcc_generated_files/eusart1.c: 164:         e
      +                          usart1RxTail = 0;
  4376  0233  01C4               	clrf	_eusart1RxTail	;volatile
  4377  0234                     l1466:
  4378                           
  4379                           ;mcc_generated_files/eusart1.c: 166:     PIE3bits.RC1IE = 0;
  4380  0234  014E               	movlb	14	; select bank14
  4381  0235  1299               	bcf	25,5	;volatile
  4382  0236                     l1468:
  4383                           
  4384                           ;mcc_generated_files/eusart1.c: 167:     eusart1RxCount--;
  4385  0236  3001               	movlw	1
  4386  0237  0140               	movlb	0	; select bank0
  4387  0238  02C3               	subwf	_eusart1RxCount,f	;volatile
  4388  0239                     l1470:
  4389                           
  4390                           ;mcc_generated_files/eusart1.c: 168:     PIE3bits.RC1IE = 1;
  4391  0239  014E               	movlb	14	; select bank14
  4392  023A  1699               	bsf	25,5	;volatile
  4393  023B                     l1472:
  4394                           
  4395                           ;mcc_generated_files/eusart1.c: 170:     return readValue;
  4396  023B  0872               	movf	EUSART1_Read@readValue,w
  4397  023C                     l167:
  4398  023C  0008               	return
  4399  023D                     __end_of_EUSART1_Read:
  4400                           
  4401                           	psect	text10
  4402  02FB                     __ptext10:	
  4403 ;; *************** function _SYSTEM_Initialize *****************
  4404 ;; Defined at:
  4405 ;;		line 50 in file "mcc_generated_files/mcc.c"
  4406 ;; Parameters:    Size  Location     Type
  4407 ;;		None
  4408 ;; Auto vars:     Size  Location     Type
  4409 ;;		None
  4410 ;; Return value:  Size  Location     Type
  4411 ;;                  1    wreg      void 
  4412 ;; Registers used:
  4413 ;;		wreg, status,2, status,0, pclath, cstack
  4414 ;; Tracked objects:
  4415 ;;		On entry : 0/0
  4416 ;;		On exit  : 0/0
  4417 ;;		Unchanged: 0/0
  4418 ;; Data sizes:     COMMON   BANK0   BANK1   BANK2   BANK3   BANK4   BANK5   BANK6   BANK7   BANK8   BANK9  BANK10  BANK1
      +1  BANK12  BANK13  BANK14  BANK15  BANK16  BANK17  BANK18  BANK19  BANK20  BANK21  BANK22  BANK23  BANK24  BANK25
  4419 ;;      Params:         0       0       0       0       0       0       0       0       0       0       0       0       
      +0       0       0       0       0       0       0       0       0       0       0       0       0       0       0
  4420 ;;      Locals:         0       0       0       0       0       0       0       0       0       0       0       0       
      +0       0       0       0       0       0       0       0       0       0       0       0       0       0       0
  4421 ;;      Temps:          0       0       0       0       0       0       0       0       0       0       0       0       
      +0       0       0       0       0       0       0       0       0       0       0       0       0       0       0
  4422 ;;      Totals:         0       0       0       0       0       0       0       0       0       0       0       0       
      +0       0       0       0       0       0       0       0       0       0       0       0       0       0       0
  4423 ;;Total ram usage:        0 bytes
  4424 ;; Hardware stack levels used: 1
  4425 ;; Hardware stack levels required when called: 6
  4426 ;; This function calls:
  4427 ;;		_EUSART1_Initialize
  4428 ;;		_OSCILLATOR_Initialize
  4429 ;;		_PIN_MANAGER_Initialize
  4430 ;;		_PMD_Initialize
  4431 ;; This function is called by:
  4432 ;;		_main
  4433 ;; This function uses a non-reentrant model
  4434 ;;
  4435                           
  4436  02FB                     _SYSTEM_Initialize:	
  4437                           ;psect for function _SYSTEM_Initialize
  4438                           
  4439  02FB                     l1518:	
  4440                           ;incstack = 0
  4441                           ; Regs used in _SYSTEM_Initialize: [wreg+status,2+status,0+pclath+cstack]
  4442                           
  4443                           
  4444                           ;mcc_generated_files/mcc.c: 52:     PMD_Initialize();
  4445  02FB  3183  2321  3182   	fcall	_PMD_Initialize
  4446  02FE                     l1520:
  4447                           
  4448                           ;mcc_generated_files/mcc.c: 53:     PIN_MANAGER_Initialize();
  4449  02FE  3182  223D  3182   	fcall	_PIN_MANAGER_Initialize
  4450  0301                     l1522:
  4451                           
  4452                           ;mcc_generated_files/mcc.c: 54:     OSCILLATOR_Initialize();
  4453  0301  3183  2308  3182   	fcall	_OSCILLATOR_Initialize
  4454  0304                     l1524:
  4455                           
  4456                           ;mcc_generated_files/mcc.c: 55:     EUSART1_Initialize();
  4457  0304  3181  2171  3182   	fcall	_EUSART1_Initialize
  4458  0307                     l262:
  4459  0307  0008               	return
  4460  0308                     __end_of_SYSTEM_Initialize:
  4461                           
  4462                           	psect	text11
  4463  0321                     __ptext11:	
  4464 ;; *************** function _PMD_Initialize *****************
  4465 ;; Defined at:
  4466 ;;		line 76 in file "mcc_generated_files/mcc.c"
  4467 ;; Parameters:    Size  Location     Type
  4468 ;;		None
  4469 ;; Auto vars:     Size  Location     Type
  4470 ;;		None
  4471 ;; Return value:  Size  Location     Type
  4472 ;;                  1    wreg      void 
  4473 ;; Registers used:
  4474 ;;		status,2
  4475 ;; Tracked objects:
  4476 ;;		On entry : 0/0
  4477 ;;		On exit  : 0/0
  4478 ;;		Unchanged: 0/0
  4479 ;; Data sizes:     COMMON   BANK0   BANK1   BANK2   BANK3   BANK4   BANK5   BANK6   BANK7   BANK8   BANK9  BANK10  BANK1
      +1  BANK12  BANK13  BANK14  BANK15  BANK16  BANK17  BANK18  BANK19  BANK20  BANK21  BANK22  BANK23  BANK24  BANK25
  4480 ;;      Params:         0       0       0       0       0       0       0       0       0       0       0       0       
      +0       0       0       0       0       0       0       0       0       0       0       0       0       0       0
  4481 ;;      Locals:         0       0       0       0       0       0       0       0       0       0       0       0       
      +0       0       0       0       0       0       0       0       0       0       0       0       0       0       0
  4482 ;;      Temps:          0       0       0       0       0       0       0       0       0       0       0       0       
      +0       0       0       0       0       0       0       0       0       0       0       0       0       0       0
  4483 ;;      Totals:         0       0       0       0       0       0       0       0       0       0       0       0       
      +0       0       0       0       0       0       0       0       0       0       0       0       0       0       0
  4484 ;;Total ram usage:        0 bytes
  4485 ;; Hardware stack levels used: 1
  4486 ;; Hardware stack levels required when called: 4
  4487 ;; This function calls:
  4488 ;;		Nothing
  4489 ;; This function is called by:
  4490 ;;		_SYSTEM_Initialize
  4491 ;; This function uses a non-reentrant model
  4492 ;;
  4493                           
  4494  0321                     _PMD_Initialize:	
  4495                           ;psect for function _PMD_Initialize
  4496                           
  4497  0321                     l1176:	
  4498                           ;incstack = 0
  4499                           ; Regs used in _PMD_Initialize: [status,2]
  4500                           
  4501                           
  4502                           ;mcc_generated_files/mcc.c: 79:     PMD0 = 0x00;
  4503  0321  014F               	movlb	15	; select bank15
  4504  0322  0196               	clrf	22	;volatile
  4505                           
  4506                           ;mcc_generated_files/mcc.c: 81:     PMD1 = 0x00;
  4507  0323  0197               	clrf	23	;volatile
  4508                           
  4509                           ;mcc_generated_files/mcc.c: 83:     PMD2 = 0x00;
  4510  0324  0198               	clrf	24	;volatile
  4511                           
  4512                           ;mcc_generated_files/mcc.c: 85:     PMD3 = 0x00;
  4513  0325  0199               	clrf	25	;volatile
  4514                           
  4515                           ;mcc_generated_files/mcc.c: 87:     PMD4 = 0x00;
  4516  0326  019A               	clrf	26	;volatile
  4517                           
  4518                           ;mcc_generated_files/mcc.c: 89:     PMD5 = 0x00;
  4519  0327  019B               	clrf	27	;volatile
  4520                           
  4521                           ;mcc_generated_files/mcc.c: 91:     PMD6 = 0x00;
  4522  0328  019C               	clrf	28	;volatile
  4523                           
  4524                           ;mcc_generated_files/mcc.c: 93:     PMD7 = 0x00;
  4525  0329  019D               	clrf	29	;volatile
  4526  032A                     l271:
  4527  032A  0008               	return
  4528  032B                     __end_of_PMD_Initialize:
  4529                           
  4530                           	psect	text12
  4531  023D                     __ptext12:	
  4532 ;; *************** function _PIN_MANAGER_Initialize *****************
  4533 ;; Defined at:
  4534 ;;		line 55 in file "mcc_generated_files/pin_manager.c"
  4535 ;; Parameters:    Size  Location     Type
  4536 ;;		None
  4537 ;; Auto vars:     Size  Location     Type
  4538 ;;		None
  4539 ;; Return value:  Size  Location     Type
  4540 ;;                  1    wreg      void 
  4541 ;; Registers used:
  4542 ;;		wreg, status,2
  4543 ;; Tracked objects:
  4544 ;;		On entry : 0/0
  4545 ;;		On exit  : 0/0
  4546 ;;		Unchanged: 0/0
  4547 ;; Data sizes:     COMMON   BANK0   BANK1   BANK2   BANK3   BANK4   BANK5   BANK6   BANK7   BANK8   BANK9  BANK10  BANK1
      +1  BANK12  BANK13  BANK14  BANK15  BANK16  BANK17  BANK18  BANK19  BANK20  BANK21  BANK22  BANK23  BANK24  BANK25
  4548 ;;      Params:         0       0       0       0       0       0       0       0       0       0       0       0       
      +0       0       0       0       0       0       0       0       0       0       0       0       0       0       0
  4549 ;;      Locals:         0       0       0       0       0       0       0       0       0       0       0       0       
      +0       0       0       0       0       0       0       0       0       0       0       0       0       0       0
  4550 ;;      Temps:          0       0       0       0       0       0       0       0       0       0       0       0       
      +0       0       0       0       0       0       0       0       0       0       0       0       0       0       0
  4551 ;;      Totals:         0       0       0       0       0       0       0       0       0       0       0       0       
      +0       0       0       0       0       0       0       0       0       0       0       0       0       0       0
  4552 ;;Total ram usage:        0 bytes
  4553 ;; Hardware stack levels used: 1
  4554 ;; Hardware stack levels required when called: 4
  4555 ;; This function calls:
  4556 ;;		Nothing
  4557 ;; This function is called by:
  4558 ;;		_SYSTEM_Initialize
  4559 ;; This function uses a non-reentrant model
  4560 ;;
  4561                           
  4562  023D                     _PIN_MANAGER_Initialize:	
  4563                           ;psect for function _PIN_MANAGER_Initialize
  4564                           
  4565  023D                     l1084:	
  4566                           ;incstack = 0
  4567                           ; Regs used in _PIN_MANAGER_Initialize: [wreg+status,2]
  4568                           
  4569                           
  4570                           ;mcc_generated_files/pin_manager.c: 60:     LATA = 0x00;
  4571  023D  0140               	movlb	0	; select bank0
  4572  023E  0198               	clrf	24	;volatile
  4573                           
  4574                           ;mcc_generated_files/pin_manager.c: 61:     LATB = 0x00;
  4575  023F  0199               	clrf	25	;volatile
  4576                           
  4577                           ;mcc_generated_files/pin_manager.c: 62:     LATC = 0x00;
  4578  0240  019A               	clrf	26	;volatile
  4579  0241                     l1086:
  4580                           
  4581                           ;mcc_generated_files/pin_manager.c: 67:     TRISA = 0x3B;
  4582  0241  303B               	movlw	59
  4583  0242  0092               	movwf	18	;volatile
  4584  0243                     l1088:
  4585                           
  4586                           ;mcc_generated_files/pin_manager.c: 68:     TRISB = 0x70;
  4587  0243  3070               	movlw	112
  4588  0244  0093               	movwf	19	;volatile
  4589  0245                     l1090:
  4590                           
  4591                           ;mcc_generated_files/pin_manager.c: 69:     TRISC = 0xFF;
  4592  0245  30FF               	movlw	255
  4593  0246  0094               	movwf	20	;volatile
  4594  0247                     l1092:
  4595                           
  4596                           ;mcc_generated_files/pin_manager.c: 74:     ANSELC = 0xFF;
  4597  0247  30FF               	movlw	255
  4598  0248  017E               	movlb	62	; select bank62
  4599  0249  00CE               	movwf	78	;volatile
  4600  024A                     l1094:
  4601                           
  4602                           ;mcc_generated_files/pin_manager.c: 75:     ANSELB = 0x60;
  4603  024A  3060               	movlw	96
  4604  024B  00C3               	movwf	67	;volatile
  4605  024C                     l1096:
  4606                           
  4607                           ;mcc_generated_files/pin_manager.c: 76:     ANSELA = 0x37;
  4608  024C  3037               	movlw	55
  4609  024D  00B8               	movwf	56	;volatile
  4610                           
  4611                           ;mcc_generated_files/pin_manager.c: 81:     WPUB = 0x00;
  4612  024E  01C4               	clrf	68	;volatile
  4613                           
  4614                           ;mcc_generated_files/pin_manager.c: 82:     WPUA = 0x00;
  4615  024F  01B9               	clrf	57	;volatile
  4616                           
  4617                           ;mcc_generated_files/pin_manager.c: 83:     WPUC = 0x00;
  4618  0250  01CF               	clrf	79	;volatile
  4619                           
  4620                           ;mcc_generated_files/pin_manager.c: 88:     ODCONA = 0x00;
  4621  0251  01BA               	clrf	58	;volatile
  4622                           
  4623                           ;mcc_generated_files/pin_manager.c: 89:     ODCONB = 0x00;
  4624  0252  01C5               	clrf	69	;volatile
  4625                           
  4626                           ;mcc_generated_files/pin_manager.c: 90:     ODCONC = 0x00;
  4627  0253  01D0               	clrf	80	;volatile
  4628  0254                     l1098:
  4629                           
  4630                           ;mcc_generated_files/pin_manager.c: 95:     SLRCONA = 0x37;
  4631  0254  3037               	movlw	55
  4632  0255  00BB               	movwf	59	;volatile
  4633  0256                     l1100:
  4634                           
  4635                           ;mcc_generated_files/pin_manager.c: 96:     SLRCONB = 0xF0;
  4636  0256  30F0               	movlw	240
  4637  0257  00C6               	movwf	70	;volatile
  4638  0258                     l1102:
  4639                           
  4640                           ;mcc_generated_files/pin_manager.c: 97:     SLRCONC = 0xFF;
  4641  0258  30FF               	movlw	255
  4642  0259  00D1               	movwf	81	;volatile
  4643  025A                     l1104:
  4644                           
  4645                           ;mcc_generated_files/pin_manager.c: 102:     INLVLA = 0x3F;
  4646  025A  303F               	movlw	63
  4647  025B  00BC               	movwf	60	;volatile
  4648  025C                     l1106:
  4649                           
  4650                           ;mcc_generated_files/pin_manager.c: 103:     INLVLB = 0xF0;
  4651  025C  30F0               	movlw	240
  4652  025D  00C7               	movwf	71	;volatile
  4653  025E                     l1108:
  4654                           
  4655                           ;mcc_generated_files/pin_manager.c: 104:     INLVLC = 0xFF;
  4656  025E  30FF               	movlw	255
  4657  025F  00D2               	movwf	82	;volatile
  4658  0260                     l1110:
  4659                           
  4660                           ;mcc_generated_files/pin_manager.c: 113:     RB7PPS = 0x0F;
  4661  0260  300F               	movlw	15
  4662  0261  009F               	movwf	31	;volatile
  4663  0262                     l1112:
  4664                           
  4665                           ;mcc_generated_files/pin_manager.c: 114:     RX1DTPPS = 0x0C;
  4666  0262  300C               	movlw	12
  4667  0263  017D               	movlb	61	; select bank61
  4668  0264  00CB               	movwf	75	;volatile
  4669  0265                     l70:
  4670  0265  0008               	return
  4671  0266                     __end_of_PIN_MANAGER_Initialize:
  4672                           
  4673                           	psect	text13
  4674  0308                     __ptext13:	
  4675 ;; *************** function _OSCILLATOR_Initialize *****************
  4676 ;; Defined at:
  4677 ;;		line 58 in file "mcc_generated_files/mcc.c"
  4678 ;; Parameters:    Size  Location     Type
  4679 ;;		None
  4680 ;; Auto vars:     Size  Location     Type
  4681 ;;		None
  4682 ;; Return value:  Size  Location     Type
  4683 ;;                  1    wreg      void 
  4684 ;; Registers used:
  4685 ;;		wreg, status,2
  4686 ;; Tracked objects:
  4687 ;;		On entry : 0/0
  4688 ;;		On exit  : 0/0
  4689 ;;		Unchanged: 0/0
  4690 ;; Data sizes:     COMMON   BANK0   BANK1   BANK2   BANK3   BANK4   BANK5   BANK6   BANK7   BANK8   BANK9  BANK10  BANK1
      +1  BANK12  BANK13  BANK14  BANK15  BANK16  BANK17  BANK18  BANK19  BANK20  BANK21  BANK22  BANK23  BANK24  BANK25
  4691 ;;      Params:         0       0       0       0       0       0       0       0       0       0       0       0       
      +0       0       0       0       0       0       0       0       0       0       0       0       0       0       0
  4692 ;;      Locals:         0       0       0       0       0       0       0       0       0       0       0       0       
      +0       0       0       0       0       0       0       0       0       0       0       0       0       0       0
  4693 ;;      Temps:          0       0       0       0       0       0       0       0       0       0       0       0       
      +0       0       0       0       0       0       0       0       0       0       0       0       0       0       0
  4694 ;;      Totals:         0       0       0       0       0       0       0       0       0       0       0       0       
      +0       0       0       0       0       0       0       0       0       0       0       0       0       0       0
  4695 ;;Total ram usage:        0 bytes
  4696 ;; Hardware stack levels used: 1
  4697 ;; Hardware stack levels required when called: 4
  4698 ;; This function calls:
  4699 ;;		Nothing
  4700 ;; This function is called by:
  4701 ;;		_SYSTEM_Initialize
  4702 ;; This function uses a non-reentrant model
  4703 ;;
  4704                           
  4705  0308                     _OSCILLATOR_Initialize:	
  4706                           ;psect for function _OSCILLATOR_Initialize
  4707                           
  4708  0308                     l1178:	
  4709                           ;incstack = 0
  4710                           ; Regs used in _OSCILLATOR_Initialize: [wreg+status,2]
  4711                           
  4712                           
  4713                           ;mcc_generated_files/mcc.c: 61:     OSCCON1 = 0x10;
  4714  0308  3010               	movlw	16
  4715  0309  0151               	movlb	17	; select bank17
  4716  030A  008D               	movwf	13	;volatile
  4717  030B                     l1180:
  4718                           
  4719                           ;mcc_generated_files/mcc.c: 63:     OSCCON3 = 0x00;
  4720  030B  018F               	clrf	15	;volatile
  4721  030C                     l1182:
  4722                           
  4723                           ;mcc_generated_files/mcc.c: 65:     OSCEN = 0x00;
  4724  030C  0191               	clrf	17	;volatile
  4725                           
  4726                           ;mcc_generated_files/mcc.c: 67:     OSCFRQ = 0x05;
  4727  030D  3005               	movlw	5
  4728  030E  0093               	movwf	19	;volatile
  4729  030F                     l1184:
  4730                           
  4731                           ;mcc_generated_files/mcc.c: 69:     OSCTUNE = 0x00;
  4732  030F  0192               	clrf	18	;volatile
  4733  0310                     l265:	
  4734                           ;mcc_generated_files/mcc.c: 72:     {;mcc_generated_files/mcc.c: 73:     }
  4735                           
  4736                           
  4737                           ;mcc_generated_files/mcc.c: 71:     while(PLLR == 0)
  4738  0310  1C10               	btfss	16,0	;volatile
  4739  0311  2B13               	goto	u161
  4740  0312  2B14               	goto	u160
  4741  0313                     u161:
  4742  0313  2B10               	goto	l265
  4743  0314                     u160:
  4744  0314                     l268:
  4745  0314  0008               	return
  4746  0315                     __end_of_OSCILLATOR_Initialize:
  4747                           
  4748                           	psect	text14
  4749  0171                     __ptext14:	
  4750 ;; *************** function _EUSART1_Initialize *****************
  4751 ;; Defined at:
  4752 ;;		line 88 in file "mcc_generated_files/eusart1.c"
  4753 ;; Parameters:    Size  Location     Type
  4754 ;;		None
  4755 ;; Auto vars:     Size  Location     Type
  4756 ;;		None
  4757 ;; Return value:  Size  Location     Type
  4758 ;;                  1    wreg      void 
  4759 ;; Registers used:
  4760 ;;		wreg, status,2, status,0, pclath, cstack
  4761 ;; Tracked objects:
  4762 ;;		On entry : 0/0
  4763 ;;		On exit  : 0/0
  4764 ;;		Unchanged: 0/0
  4765 ;; Data sizes:     COMMON   BANK0   BANK1   BANK2   BANK3   BANK4   BANK5   BANK6   BANK7   BANK8   BANK9  BANK10  BANK1
      +1  BANK12  BANK13  BANK14  BANK15  BANK16  BANK17  BANK18  BANK19  BANK20  BANK21  BANK22  BANK23  BANK24  BANK25
  4766 ;;      Params:         0       0       0       0       0       0       0       0       0       0       0       0       
      +0       0       0       0       0       0       0       0       0       0       0       0       0       0       0
  4767 ;;      Locals:         0       0       0       0       0       0       0       0       0       0       0       0       
      +0       0       0       0       0       0       0       0       0       0       0       0       0       0       0
  4768 ;;      Temps:          1       0       0       0       0       0       0       0       0       0       0       0       
      +0       0       0       0       0       0       0       0       0       0       0       0       0       0       0
  4769 ;;      Totals:         1       0       0       0       0       0       0       0       0       0       0       0       
      +0       0       0       0       0       0       0       0       0       0       0       0       0       0       0
  4770 ;;Total ram usage:        1 bytes
  4771 ;; Hardware stack levels used: 1
  4772 ;; Hardware stack levels required when called: 5
  4773 ;; This function calls:
  4774 ;;		_EUSART1_SetErrorHandler
  4775 ;;		_EUSART1_SetFramingErrorHandler
  4776 ;;		_EUSART1_SetOverrunErrorHandler
  4777 ;;		_EUSART1_SetRxInterruptHandler
  4778 ;;		_EUSART1_SetTxInterruptHandler
  4779 ;; This function is called by:
  4780 ;;		_SYSTEM_Initialize
  4781 ;; This function uses a non-reentrant model
  4782 ;;
  4783                           
  4784  0171                     _EUSART1_Initialize:	
  4785                           ;psect for function _EUSART1_Initialize
  4786                           
  4787  0171                     l1418:	
  4788                           ;incstack = 0
  4789                           ; Regs used in _EUSART1_Initialize: [wreg+status,2+status,0+pclath+cstack]
  4790                           
  4791                           
  4792                           ;mcc_generated_files/eusart1.c: 91:     PIE3bits.RC1IE = 0;
  4793  0171  014E               	movlb	14	; select bank14
  4794  0172  1299               	bcf	25,5	;volatile
  4795  0173                     l1420:
  4796                           
  4797                           ;mcc_generated_files/eusart1.c: 92:     EUSART1_SetRxInterruptHandler(EUSART1_Receive_IS
      +                          R);
  4798  0173  30B0               	movlw	low _EUSART1_Receive_ISR
  4799  0174  00F1               	movwf	EUSART1_SetRxInterruptHandler@interruptHandler
  4800  0175  3001               	movlw	high _EUSART1_Receive_ISR
  4801  0176  00F2               	movwf	EUSART1_SetRxInterruptHandler@interruptHandler+1
  4802  0177  3183  2346  3181   	fcall	_EUSART1_SetRxInterruptHandler
  4803  017A                     l1422:
  4804                           
  4805                           ;mcc_generated_files/eusart1.c: 93:     PIE3bits.TX1IE = 0;
  4806  017A  014E               	movlb	14	; select bank14
  4807  017B  1219               	bcf	25,4	;volatile
  4808                           
  4809                           ;mcc_generated_files/eusart1.c: 94:     EUSART1_SetTxInterruptHandler(EUSART1_Transmit_I
      +                          SR);
  4810  017C  308E               	movlw	low _EUSART1_Transmit_ISR
  4811  017D  00F1               	movwf	EUSART1_SetTxInterruptHandler@interruptHandler
  4812  017E  3002               	movlw	high _EUSART1_Transmit_ISR
  4813  017F  00F2               	movwf	EUSART1_SetTxInterruptHandler@interruptHandler+1
  4814  0180  3183  2340  3181   	fcall	_EUSART1_SetTxInterruptHandler
  4815  0183                     l1424:
  4816                           
  4817                           ;mcc_generated_files/eusart1.c: 98:     BAUD1CON = 0x08;
  4818  0183  3008               	movlw	8
  4819  0184  0142               	movlb	2	; select bank2
  4820  0185  009F               	movwf	31	;volatile
  4821  0186                     l1426:
  4822                           
  4823                           ;mcc_generated_files/eusart1.c: 101:     RC1STA = 0x90;
  4824  0186  3090               	movlw	144
  4825  0187  009D               	movwf	29	;volatile
  4826  0188                     l1428:
  4827                           
  4828                           ;mcc_generated_files/eusart1.c: 104:     TX1STA = 0x24;
  4829  0188  3024               	movlw	36
  4830  0189  009E               	movwf	30	;volatile
  4831  018A                     l1430:
  4832                           
  4833                           ;mcc_generated_files/eusart1.c: 107:     SP1BRGL = 0x44;
  4834  018A  3044               	movlw	68
  4835  018B  009B               	movwf	27	;volatile
  4836  018C                     l1432:
  4837                           
  4838                           ;mcc_generated_files/eusart1.c: 110:     SP1BRGH = 0x00;
  4839  018C  019C               	clrf	28	;volatile
  4840  018D                     l1434:
  4841                           
  4842                           ;mcc_generated_files/eusart1.c: 113:     EUSART1_SetFramingErrorHandler(EUSART1_DefaultF
      +                          ramingErrorHandler);
  4843  018D  306C               	movlw	low _EUSART1_DefaultFramingErrorHandler
  4844  018E  00F1               	movwf	EUSART1_SetFramingErrorHandler@interruptHandler
  4845  018F  3003               	movlw	high _EUSART1_DefaultFramingErrorHandler
  4846  0190  00F2               	movwf	EUSART1_SetFramingErrorHandler@interruptHandler+1
  4847  0191  3183  2352  3181   	fcall	_EUSART1_SetFramingErrorHandler
  4848  0194                     l1436:
  4849                           
  4850                           ;mcc_generated_files/eusart1.c: 114:     EUSART1_SetOverrunErrorHandler(EUSART1_DefaultO
      +                          verrunErrorHandler);
  4851  0194  305E               	movlw	low _EUSART1_DefaultOverrunErrorHandler
  4852  0195  00F1               	movwf	EUSART1_SetOverrunErrorHandler@interruptHandler
  4853  0196  3003               	movlw	high _EUSART1_DefaultOverrunErrorHandler
  4854  0197  00F2               	movwf	EUSART1_SetOverrunErrorHandler@interruptHandler+1
  4855  0198  3183  234C  3181   	fcall	_EUSART1_SetOverrunErrorHandler
  4856  019B                     l1438:
  4857                           
  4858                           ;mcc_generated_files/eusart1.c: 115:     EUSART1_SetErrorHandler(EUSART1_DefaultErrorHan
      +                          dler);
  4859  019B  3062               	movlw	low _EUSART1_DefaultErrorHandler
  4860  019C  00F1               	movwf	EUSART1_SetErrorHandler@interruptHandler
  4861  019D  3003               	movlw	high _EUSART1_DefaultErrorHandler
  4862  019E  00F2               	movwf	EUSART1_SetErrorHandler@interruptHandler+1
  4863  019F  3183  2358  3181   	fcall	_EUSART1_SetErrorHandler
  4864                           
  4865                           ;mcc_generated_files/eusart1.c: 117:     eusart1RxLastError.status = 0;
  4866  01A2  0140               	movlb	0	; select bank0
  4867  01A3  01C2               	clrf	_eusart1RxLastError	;volatile
  4868                           
  4869                           ;mcc_generated_files/eusart1.c: 120:     eusart1TxHead = 0;
  4870  01A4  01C7               	clrf	_eusart1TxHead	;volatile
  4871                           
  4872                           ;mcc_generated_files/eusart1.c: 121:     eusart1TxTail = 0;
  4873  01A5  01C6               	clrf	_eusart1TxTail	;volatile
  4874  01A6                     l1440:
  4875                           
  4876                           ;mcc_generated_files/eusart1.c: 122:     eusart1TxBufferRemaining = sizeof(eusart1TxBuff
      +                          er);
  4877  01A6  3008               	movlw	8
  4878  01A7  00F3               	movwf	??_EUSART1_Initialize
  4879  01A8  0873               	movf	??_EUSART1_Initialize,w
  4880  01A9  00C5               	movwf	_eusart1TxBufferRemaining	;volatile
  4881  01AA                     l1442:
  4882                           
  4883                           ;mcc_generated_files/eusart1.c: 124:     eusart1RxHead = 0;
  4884  01AA  01FC               	clrf	_eusart1RxHead	;volatile
  4885  01AB                     l1444:
  4886                           
  4887                           ;mcc_generated_files/eusart1.c: 125:     eusart1RxTail = 0;
  4888  01AB  01C4               	clrf	_eusart1RxTail	;volatile
  4889  01AC                     l1446:
  4890                           
  4891                           ;mcc_generated_files/eusart1.c: 126:     eusart1RxCount = 0;
  4892  01AC  01C3               	clrf	_eusart1RxCount	;volatile
  4893  01AD                     l1448:
  4894                           
  4895                           ;mcc_generated_files/eusart1.c: 129:     PIE3bits.RC1IE = 1;
  4896  01AD  014E               	movlb	14	; select bank14
  4897  01AE  1699               	bsf	25,5	;volatile
  4898  01AF                     l148:
  4899  01AF  0008               	return
  4900  01B0                     __end_of_EUSART1_Initialize:
  4901                           
  4902                           	psect	text15
  4903  0340                     __ptext15:	
  4904 ;; *************** function _EUSART1_SetTxInterruptHandler *****************
  4905 ;; Defined at:
  4906 ;;		line 285 in file "mcc_generated_files/eusart1.c"
  4907 ;; Parameters:    Size  Location     Type
  4908 ;;  interruptHan    2    1[COMMON] PTR FTN()void 
  4909 ;;		 -> EUSART1_Transmit_ISR(1), 
  4910 ;; Auto vars:     Size  Location     Type
  4911 ;;		None
  4912 ;; Return value:  Size  Location     Type
  4913 ;;                  1    wreg      void 
  4914 ;; Registers used:
  4915 ;;		wreg
  4916 ;; Tracked objects:
  4917 ;;		On entry : 0/0
  4918 ;;		On exit  : 0/0
  4919 ;;		Unchanged: 0/0
  4920 ;; Data sizes:     COMMON   BANK0   BANK1   BANK2   BANK3   BANK4   BANK5   BANK6   BANK7   BANK8   BANK9  BANK10  BANK1
      +1  BANK12  BANK13  BANK14  BANK15  BANK16  BANK17  BANK18  BANK19  BANK20  BANK21  BANK22  BANK23  BANK24  BANK25
  4921 ;;      Params:         2       0       0       0       0       0       0       0       0       0       0       0       
      +0       0       0       0       0       0       0       0       0       0       0       0       0       0       0
  4922 ;;      Locals:         0       0       0       0       0       0       0       0       0       0       0       0       
      +0       0       0       0       0       0       0       0       0       0       0       0       0       0       0
  4923 ;;      Temps:          0       0       0       0       0       0       0       0       0       0       0       0       
      +0       0       0       0       0       0       0       0       0       0       0       0       0       0       0
  4924 ;;      Totals:         2       0       0       0       0       0       0       0       0       0       0       0       
      +0       0       0       0       0       0       0       0       0       0       0       0       0       0       0
  4925 ;;Total ram usage:        2 bytes
  4926 ;; Hardware stack levels used: 1
  4927 ;; Hardware stack levels required when called: 4
  4928 ;; This function calls:
  4929 ;;		Nothing
  4930 ;; This function is called by:
  4931 ;;		_EUSART1_Initialize
  4932 ;; This function uses a non-reentrant model
  4933 ;;
  4934                           
  4935  0340                     _EUSART1_SetTxInterruptHandler:	
  4936                           ;psect for function _EUSART1_SetTxInterruptHandler
  4937                           
  4938  0340                     l1388:	
  4939                           ;incstack = 0
  4940                           ; Regs used in _EUSART1_SetTxInterruptHandler: [wreg]
  4941                           
  4942                           
  4943                           ;mcc_generated_files/eusart1.c: 286:     EUSART1_TxDefaultInterruptHandler = interruptHa
      +                          ndler;
  4944  0340  0872               	movf	EUSART1_SetTxInterruptHandler@interruptHandler+1,w
  4945  0341  0140               	movlb	0	; select bank0
  4946  0342  00C1               	movwf	_EUSART1_TxDefaultInterruptHandler+1
  4947  0343  0871               	movf	EUSART1_SetTxInterruptHandler@interruptHandler,w
  4948  0344  00C0               	movwf	_EUSART1_TxDefaultInterruptHandler
  4949  0345                     l220:
  4950  0345  0008               	return
  4951  0346                     __end_of_EUSART1_SetTxInterruptHandler:
  4952                           
  4953                           	psect	text16
  4954  0346                     __ptext16:	
  4955 ;; *************** function _EUSART1_SetRxInterruptHandler *****************
  4956 ;; Defined at:
  4957 ;;		line 289 in file "mcc_generated_files/eusart1.c"
  4958 ;; Parameters:    Size  Location     Type
  4959 ;;  interruptHan    2    1[COMMON] PTR FTN()void 
  4960 ;;		 -> EUSART1_Receive_ISR(1), 
  4961 ;; Auto vars:     Size  Location     Type
  4962 ;;		None
  4963 ;; Return value:  Size  Location     Type
  4964 ;;                  1    wreg      void 
  4965 ;; Registers used:
  4966 ;;		wreg
  4967 ;; Tracked objects:
  4968 ;;		On entry : 0/0
  4969 ;;		On exit  : 0/0
  4970 ;;		Unchanged: 0/0
  4971 ;; Data sizes:     COMMON   BANK0   BANK1   BANK2   BANK3   BANK4   BANK5   BANK6   BANK7   BANK8   BANK9  BANK10  BANK1
      +1  BANK12  BANK13  BANK14  BANK15  BANK16  BANK17  BANK18  BANK19  BANK20  BANK21  BANK22  BANK23  BANK24  BANK25
  4972 ;;      Params:         2       0       0       0       0       0       0       0       0       0       0       0       
      +0       0       0       0       0       0       0       0       0       0       0       0       0       0       0
  4973 ;;      Locals:         0       0       0       0       0       0       0       0       0       0       0       0       
      +0       0       0       0       0       0       0       0       0       0       0       0       0       0       0
  4974 ;;      Temps:          0       0       0       0       0       0       0       0       0       0       0       0       
      +0       0       0       0       0       0       0       0       0       0       0       0       0       0       0
  4975 ;;      Totals:         2       0       0       0       0       0       0       0       0       0       0       0       
      +0       0       0       0       0       0       0       0       0       0       0       0       0       0       0
  4976 ;;Total ram usage:        2 bytes
  4977 ;; Hardware stack levels used: 1
  4978 ;; Hardware stack levels required when called: 4
  4979 ;; This function calls:
  4980 ;;		Nothing
  4981 ;; This function is called by:
  4982 ;;		_EUSART1_Initialize
  4983 ;; This function uses a non-reentrant model
  4984 ;;
  4985                           
  4986  0346                     _EUSART1_SetRxInterruptHandler:	
  4987                           ;psect for function _EUSART1_SetRxInterruptHandler
  4988                           
  4989  0346                     l1386:	
  4990                           ;incstack = 0
  4991                           ; Regs used in _EUSART1_SetRxInterruptHandler: [wreg]
  4992                           
  4993                           
  4994                           ;mcc_generated_files/eusart1.c: 290:     EUSART1_RxDefaultInterruptHandler = interruptHa
      +                          ndler;
  4995  0346  0872               	movf	EUSART1_SetRxInterruptHandler@interruptHandler+1,w
  4996  0347  0140               	movlb	0	; select bank0
  4997  0348  00BF               	movwf	_EUSART1_RxDefaultInterruptHandler+1
  4998  0349  0871               	movf	EUSART1_SetRxInterruptHandler@interruptHandler,w
  4999  034A  00BE               	movwf	_EUSART1_RxDefaultInterruptHandler
  5000  034B                     l223:
  5001  034B  0008               	return
  5002  034C                     __end_of_EUSART1_SetRxInterruptHandler:
  5003                           
  5004                           	psect	text17
  5005  034C                     __ptext17:	
  5006 ;; *************** function _EUSART1_SetOverrunErrorHandler *****************
  5007 ;; Defined at:
  5008 ;;		line 277 in file "mcc_generated_files/eusart1.c"
  5009 ;; Parameters:    Size  Location     Type
  5010 ;;  interruptHan    2    1[COMMON] PTR FTN()void 
  5011 ;;		 -> EUSART1_DefaultOverrunErrorHandler(1), 
  5012 ;; Auto vars:     Size  Location     Type
  5013 ;;		None
  5014 ;; Return value:  Size  Location     Type
  5015 ;;                  1    wreg      void 
  5016 ;; Registers used:
  5017 ;;		wreg
  5018 ;; Tracked objects:
  5019 ;;		On entry : 0/0
  5020 ;;		On exit  : 0/0
  5021 ;;		Unchanged: 0/0
  5022 ;; Data sizes:     COMMON   BANK0   BANK1   BANK2   BANK3   BANK4   BANK5   BANK6   BANK7   BANK8   BANK9  BANK10  BANK1
      +1  BANK12  BANK13  BANK14  BANK15  BANK16  BANK17  BANK18  BANK19  BANK20  BANK21  BANK22  BANK23  BANK24  BANK25
  5023 ;;      Params:         2       0       0       0       0       0       0       0       0       0       0       0       
      +0       0       0       0       0       0       0       0       0       0       0       0       0       0       0
  5024 ;;      Locals:         0       0       0       0       0       0       0       0       0       0       0       0       
      +0       0       0       0       0       0       0       0       0       0       0       0       0       0       0
  5025 ;;      Temps:          0       0       0       0       0       0       0       0       0       0       0       0       
      +0       0       0       0       0       0       0       0       0       0       0       0       0       0       0
  5026 ;;      Totals:         2       0       0       0       0       0       0       0       0       0       0       0       
      +0       0       0       0       0       0       0       0       0       0       0       0       0       0       0
  5027 ;;Total ram usage:        2 bytes
  5028 ;; Hardware stack levels used: 1
  5029 ;; Hardware stack levels required when called: 4
  5030 ;; This function calls:
  5031 ;;		Nothing
  5032 ;; This function is called by:
  5033 ;;		_EUSART1_Initialize
  5034 ;; This function uses a non-reentrant model
  5035 ;;
  5036                           
  5037  034C                     _EUSART1_SetOverrunErrorHandler:	
  5038                           ;psect for function _EUSART1_SetOverrunErrorHandler
  5039                           
  5040  034C                     l1392:	
  5041                           ;incstack = 0
  5042                           ; Regs used in _EUSART1_SetOverrunErrorHandler: [wreg]
  5043                           
  5044                           
  5045                           ;mcc_generated_files/eusart1.c: 278:     EUSART1_OverrunErrorHandler = interruptHandler;
  5046  034C  0872               	movf	EUSART1_SetOverrunErrorHandler@interruptHandler+1,w
  5047  034D  0140               	movlb	0	; select bank0
  5048  034E  00BB               	movwf	_EUSART1_OverrunErrorHandler+1
  5049  034F  0871               	movf	EUSART1_SetOverrunErrorHandler@interruptHandler,w
  5050  0350  00BA               	movwf	_EUSART1_OverrunErrorHandler
  5051  0351                     l214:
  5052  0351  0008               	return
  5053  0352                     __end_of_EUSART1_SetOverrunErrorHandler:
  5054                           
  5055                           	psect	text18
  5056  0352                     __ptext18:	
  5057 ;; *************** function _EUSART1_SetFramingErrorHandler *****************
  5058 ;; Defined at:
  5059 ;;		line 273 in file "mcc_generated_files/eusart1.c"
  5060 ;; Parameters:    Size  Location     Type
  5061 ;;  interruptHan    2    1[COMMON] PTR FTN()void 
  5062 ;;		 -> EUSART1_DefaultFramingErrorHandler(1), 
  5063 ;; Auto vars:     Size  Location     Type
  5064 ;;		None
  5065 ;; Return value:  Size  Location     Type
  5066 ;;                  1    wreg      void 
  5067 ;; Registers used:
  5068 ;;		wreg
  5069 ;; Tracked objects:
  5070 ;;		On entry : 0/0
  5071 ;;		On exit  : 0/0
  5072 ;;		Unchanged: 0/0
  5073 ;; Data sizes:     COMMON   BANK0   BANK1   BANK2   BANK3   BANK4   BANK5   BANK6   BANK7   BANK8   BANK9  BANK10  BANK1
      +1  BANK12  BANK13  BANK14  BANK15  BANK16  BANK17  BANK18  BANK19  BANK20  BANK21  BANK22  BANK23  BANK24  BANK25
  5074 ;;      Params:         2       0       0       0       0       0       0       0       0       0       0       0       
      +0       0       0       0       0       0       0       0       0       0       0       0       0       0       0
  5075 ;;      Locals:         0       0       0       0       0       0       0       0       0       0       0       0       
      +0       0       0       0       0       0       0       0       0       0       0       0       0       0       0
  5076 ;;      Temps:          0       0       0       0       0       0       0       0       0       0       0       0       
      +0       0       0       0       0       0       0       0       0       0       0       0       0       0       0
  5077 ;;      Totals:         2       0       0       0       0       0       0       0       0       0       0       0       
      +0       0       0       0       0       0       0       0       0       0       0       0       0       0       0
  5078 ;;Total ram usage:        2 bytes
  5079 ;; Hardware stack levels used: 1
  5080 ;; Hardware stack levels required when called: 4
  5081 ;; This function calls:
  5082 ;;		Nothing
  5083 ;; This function is called by:
  5084 ;;		_EUSART1_Initialize
  5085 ;; This function uses a non-reentrant model
  5086 ;;
  5087                           
  5088  0352                     _EUSART1_SetFramingErrorHandler:	
  5089                           ;psect for function _EUSART1_SetFramingErrorHandler
  5090                           
  5091  0352                     l1390:	
  5092                           ;incstack = 0
  5093                           ; Regs used in _EUSART1_SetFramingErrorHandler: [wreg]
  5094                           
  5095                           
  5096                           ;mcc_generated_files/eusart1.c: 274:     EUSART1_FramingErrorHandler = interruptHandler;
  5097  0352  0872               	movf	EUSART1_SetFramingErrorHandler@interruptHandler+1,w
  5098  0353  0140               	movlb	0	; select bank0
  5099  0354  00BD               	movwf	_EUSART1_FramingErrorHandler+1
  5100  0355  0871               	movf	EUSART1_SetFramingErrorHandler@interruptHandler,w
  5101  0356  00BC               	movwf	_EUSART1_FramingErrorHandler
  5102  0357                     l211:
  5103  0357  0008               	return
  5104  0358                     __end_of_EUSART1_SetFramingErrorHandler:
  5105                           
  5106                           	psect	text19
  5107  0358                     __ptext19:	
  5108 ;; *************** function _EUSART1_SetErrorHandler *****************
  5109 ;; Defined at:
  5110 ;;		line 281 in file "mcc_generated_files/eusart1.c"
  5111 ;; Parameters:    Size  Location     Type
  5112 ;;  interruptHan    2    1[COMMON] PTR FTN()void 
  5113 ;;		 -> EUSART1_DefaultErrorHandler(1), 
  5114 ;; Auto vars:     Size  Location     Type
  5115 ;;		None
  5116 ;; Return value:  Size  Location     Type
  5117 ;;                  1    wreg      void 
  5118 ;; Registers used:
  5119 ;;		wreg
  5120 ;; Tracked objects:
  5121 ;;		On entry : 0/0
  5122 ;;		On exit  : 0/0
  5123 ;;		Unchanged: 0/0
  5124 ;; Data sizes:     COMMON   BANK0   BANK1   BANK2   BANK3   BANK4   BANK5   BANK6   BANK7   BANK8   BANK9  BANK10  BANK1
      +1  BANK12  BANK13  BANK14  BANK15  BANK16  BANK17  BANK18  BANK19  BANK20  BANK21  BANK22  BANK23  BANK24  BANK25
  5125 ;;      Params:         2       0       0       0       0       0       0       0       0       0       0       0       
      +0       0       0       0       0       0       0       0       0       0       0       0       0       0       0
  5126 ;;      Locals:         0       0       0       0       0       0       0       0       0       0       0       0       
      +0       0       0       0       0       0       0       0       0       0       0       0       0       0       0
  5127 ;;      Temps:          0       0       0       0       0       0       0       0       0       0       0       0       
      +0       0       0       0       0       0       0       0       0       0       0       0       0       0       0
  5128 ;;      Totals:         2       0       0       0       0       0       0       0       0       0       0       0       
      +0       0       0       0       0       0       0       0       0       0       0       0       0       0       0
  5129 ;;Total ram usage:        2 bytes
  5130 ;; Hardware stack levels used: 1
  5131 ;; Hardware stack levels required when called: 4
  5132 ;; This function calls:
  5133 ;;		Nothing
  5134 ;; This function is called by:
  5135 ;;		_EUSART1_Initialize
  5136 ;; This function uses a non-reentrant model
  5137 ;;
  5138                           
  5139  0358                     _EUSART1_SetErrorHandler:	
  5140                           ;psect for function _EUSART1_SetErrorHandler
  5141                           
  5142  0358                     l1394:	
  5143                           ;incstack = 0
  5144                           ; Regs used in _EUSART1_SetErrorHandler: [wreg]
  5145                           
  5146                           
  5147                           ;mcc_generated_files/eusart1.c: 282:     EUSART1_ErrorHandler = interruptHandler;
  5148  0358  0872               	movf	EUSART1_SetErrorHandler@interruptHandler+1,w
  5149  0359  0140               	movlb	0	; select bank0
  5150  035A  00B9               	movwf	_EUSART1_ErrorHandler+1
  5151  035B  0871               	movf	EUSART1_SetErrorHandler@interruptHandler,w
  5152  035C  00B8               	movwf	_EUSART1_ErrorHandler
  5153  035D                     l217:
  5154  035D  0008               	return
  5155  035E                     __end_of_EUSART1_SetErrorHandler:
  5156                           
  5157                           	psect	intentry
  5158  0004                     __pintentry:	
  5159 ;; *************** function _INTERRUPT_InterruptManager *****************
  5160 ;; Defined at:
  5161 ;;		line 52 in file "mcc_generated_files/interrupt_manager.c"
  5162 ;; Parameters:    Size  Location     Type
  5163 ;;		None
  5164 ;; Auto vars:     Size  Location     Type
  5165 ;;		None
  5166 ;; Return value:  Size  Location     Type
  5167 ;;                  1    wreg      void 
  5168 ;; Registers used:
  5169 ;;		wreg, fsr1l, fsr1h, status,2, status,0, pclath, cstack
  5170 ;; Tracked objects:
  5171 ;;		On entry : 0/0
  5172 ;;		On exit  : 0/0
  5173 ;;		Unchanged: 0/0
  5174 ;; Data sizes:     COMMON   BANK0   BANK1   BANK2   BANK3   BANK4   BANK5   BANK6   BANK7   BANK8   BANK9  BANK10  BANK1
      +1  BANK12  BANK13  BANK14  BANK15  BANK16  BANK17  BANK18  BANK19  BANK20  BANK21  BANK22  BANK23  BANK24  BANK25
  5175 ;;      Params:         0       0       0       0       0       0       0       0       0       0       0       0       
      +0       0       0       0       0       0       0       0       0       0       0       0       0       0       0
  5176 ;;      Locals:         0       0       0       0       0       0       0       0       0       0       0       0       
      +0       0       0       0       0       0       0       0       0       0       0       0       0       0       0
  5177 ;;      Temps:          0       0       0       0       0       0       0       0       0       0       0       0       
      +0       0       0       0       0       0       0       0       0       0       0       0       0       0       0
  5178 ;;      Totals:         0       0       0       0       0       0       0       0       0       0       0       0       
      +0       0       0       0       0       0       0       0       0       0       0       0       0       0       0
  5179 ;;Total ram usage:        0 bytes
  5180 ;; Hardware stack levels used: 1
  5181 ;; Hardware stack levels required when called: 3
  5182 ;; This function calls:
  5183 ;;		Absolute function
  5184 ;;		_EUSART1_Receive_ISR
  5185 ;;		_EUSART1_Transmit_ISR
  5186 ;; This function is called by:
  5187 ;;		Interrupt level 1
  5188 ;; This function uses a non-reentrant model
  5189 ;;
  5190                           
  5191  0004                     _INTERRUPT_InterruptManager:
  5192                           
  5193                           ;incstack = 0
  5194  0004  147E               	bsf	int$flags,0	;set compiler interrupt flag (level 1)
  5195                           
  5196                           ; Regs used in _INTERRUPT_InterruptManager: [wreg+fsr1l+fsr1h+status,2+status,0+pclath+c
      +                          stack]
  5197  0005  3180               	pagesel	$
  5198  0006                     i1l1562:
  5199                           
  5200                           ;mcc_generated_files/interrupt_manager.c: 55:     if(INTCONbits.PEIE == 1)
  5201  0006  1F0B               	btfss	11,6	;volatile
  5202  0007  2809               	goto	u53_21
  5203  0008  280A               	goto	u53_20
  5204  0009                     u53_21:
  5205  0009  2829               	goto	i1l21
  5206  000A                     u53_20:
  5207  000A                     i1l1564:
  5208                           
  5209                           ;mcc_generated_files/interrupt_manager.c: 56:     {;mcc_generated_files/interrupt_manage
      +                          r.c: 57:         if(PIE3bits.TX1IE == 1 && PIR3bits.TX1IF == 1)
  5210  000A  014E               	movlb	14	; select bank14
  5211  000B  1E19               	btfss	25,4	;volatile
  5212  000C  280E               	goto	u54_21
  5213  000D  280F               	goto	u54_20
  5214  000E                     u54_21:
  5215  000E  281A               	goto	i1l16
  5216  000F                     u54_20:
  5217  000F                     i1l1566:
  5218  000F  1E0F               	btfss	15,4	;volatile
  5219  0010  2812               	goto	u55_21
  5220  0011  2813               	goto	u55_20
  5221  0012                     u55_21:
  5222  0012  281A               	goto	i1l16
  5223  0013                     u55_20:
  5224  0013                     i1l1568:
  5225                           
  5226                           ;mcc_generated_files/interrupt_manager.c: 58:         {;mcc_generated_files/interrupt_ma
      +                          nager.c: 59:             EUSART1_TxDefaultInterruptHandler();
  5227  0013  0140               	movlb	0	; select bank0
  5228  0014  0841               	movf	_EUSART1_TxDefaultInterruptHandler+1,w
  5229  0015  008A               	movwf	10
  5230  0016  0840               	movf	_EUSART1_TxDefaultInterruptHandler,w
  5231  0017  000A               	callw
  5232  0018  3180               	pagesel	$
  5233                           
  5234                           ;mcc_generated_files/interrupt_manager.c: 60:         }
  5235  0019  2829               	goto	i1l21
  5236  001A                     i1l16:	
  5237                           ;mcc_generated_files/interrupt_manager.c: 61:         else if(PIE3bits.RC1IE == 1 && PIR
      +                          3bits.RC1IF == 1)
  5238                           
  5239  001A  1E99               	btfss	25,5	;volatile
  5240  001B  281D               	goto	u56_21
  5241  001C  281E               	goto	u56_20
  5242  001D                     u56_21:
  5243  001D  2829               	goto	i1l17
  5244  001E                     u56_20:
  5245  001E                     i1l1570:
  5246  001E  1E8F               	btfss	15,5	;volatile
  5247  001F  2821               	goto	u57_21
  5248  0020  2822               	goto	u57_20
  5249  0021                     u57_21:
  5250  0021  2829               	goto	i1l17
  5251  0022                     u57_20:
  5252  0022                     i1l1572:
  5253                           
  5254                           ;mcc_generated_files/interrupt_manager.c: 62:         {;mcc_generated_files/interrupt_ma
      +                          nager.c: 63:             EUSART1_RxDefaultInterruptHandler();
  5255  0022  0140               	movlb	0	; select bank0
  5256  0023  083F               	movf	_EUSART1_RxDefaultInterruptHandler+1,w
  5257  0024  008A               	movwf	10
  5258  0025  083E               	movf	_EUSART1_RxDefaultInterruptHandler,w
  5259  0026  000A               	callw
  5260  0027  3180               	pagesel	$
  5261                           
  5262                           ;mcc_generated_files/interrupt_manager.c: 64:         }
  5263  0028  2829               	goto	i1l21
  5264  0029                     i1l17:
  5265  0029                     i1l21:	
  5266                           ;mcc_generated_files/interrupt_manager.c: 69:     }
  5267                           
  5268  0029  107E               	bcf	int$flags,0	;clear compiler interrupt flag (level 1)
  5269  002A  0009               	retfie
  5270  002B                     __end_of_INTERRUPT_InterruptManager:
  5271                           
  5272                           	psect	text21
  5273  028E                     __ptext21:	
  5274 ;; *************** function _EUSART1_Transmit_ISR *****************
  5275 ;; Defined at:
  5276 ;;		line 206 in file "mcc_generated_files/eusart1.c"
  5277 ;; Parameters:    Size  Location     Type
  5278 ;;		None
  5279 ;; Auto vars:     Size  Location     Type
  5280 ;;		None
  5281 ;; Return value:  Size  Location     Type
  5282 ;;                  1    wreg      void 
  5283 ;; Registers used:
  5284 ;;		wreg, fsr1l, fsr1h, status,2, status,0
  5285 ;; Tracked objects:
  5286 ;;		On entry : 0/0
  5287 ;;		On exit  : 0/0
  5288 ;;		Unchanged: 0/0
  5289 ;; Data sizes:     COMMON   BANK0   BANK1   BANK2   BANK3   BANK4   BANK5   BANK6   BANK7   BANK8   BANK9  BANK10  BANK1
      +1  BANK12  BANK13  BANK14  BANK15  BANK16  BANK17  BANK18  BANK19  BANK20  BANK21  BANK22  BANK23  BANK24  BANK25
  5290 ;;      Params:         0       0       0       0       0       0       0       0       0       0       0       0       
      +0       0       0       0       0       0       0       0       0       0       0       0       0       0       0
  5291 ;;      Locals:         0       0       0       0       0       0       0       0       0       0       0       0       
      +0       0       0       0       0       0       0       0       0       0       0       0       0       0       0
  5292 ;;      Temps:          1       0       0       0       0       0       0       0       0       0       0       0       
      +0       0       0       0       0       0       0       0       0       0       0       0       0       0       0
  5293 ;;      Totals:         1       0       0       0       0       0       0       0       0       0       0       0       
      +0       0       0       0       0       0       0       0       0       0       0       0       0       0       0
  5294 ;;Total ram usage:        1 bytes
  5295 ;; Hardware stack levels used: 1
  5296 ;; This function calls:
  5297 ;;		Nothing
  5298 ;; This function is called by:
  5299 ;;		_EUSART1_Initialize
  5300 ;;		_INTERRUPT_InterruptManager
  5301 ;; This function uses a non-reentrant model
  5302 ;;
  5303                           
  5304  028E                     _EUSART1_Transmit_ISR:	
  5305                           ;psect for function _EUSART1_Transmit_ISR
  5306                           
  5307  028E                     i1l1486:	
  5308                           ;incstack = 0
  5309                           ; Regs used in _EUSART1_Transmit_ISR: [wreg+fsr1l+fsr1h+status,2+status,0]
  5310                           
  5311                           
  5312                           ;mcc_generated_files/eusart1.c: 210:     if(sizeof(eusart1TxBuffer) > eusart1TxBufferRem
      +                          aining)
  5313  028E  3008               	movlw	8
  5314  028F  0140               	movlb	0	; select bank0
  5315  0290  0245               	subwf	_eusart1TxBufferRemaining,w	;volatile
  5316  0291  1803               	skipnc
  5317  0292  2A94               	goto	u45_21
  5318  0293  2A95               	goto	u45_20
  5319  0294                     u45_21:
  5320  0294  2AAD               	goto	i1l185
  5321  0295                     u45_20:
  5322  0295                     i1l1488:
  5323                           
  5324                           ;mcc_generated_files/eusart1.c: 211:     {;mcc_generated_files/eusart1.c: 212:         T
      +                          X1REG = eusart1TxBuffer[eusart1TxTail++];
  5325  0295  0846               	movf	_eusart1TxTail,w
  5326  0296  3E28               	addlw	(low (_eusart1TxBuffer| 0))& (0+255)
  5327  0297  0086               	movwf	6
  5328  0298  0187               	clrf	7
  5329  0299  0801               	movf	1,w
  5330  029A  0142               	movlb	2	; select bank2
  5331  029B  009A               	movwf	26	;volatile
  5332  029C                     i1l1490:
  5333  029C  3001               	movlw	1
  5334  029D  00F0               	movwf	??_EUSART1_Transmit_ISR
  5335  029E  0870               	movf	??_EUSART1_Transmit_ISR,w
  5336  029F  0140               	movlb	0	; select bank0
  5337  02A0  07C6               	addwf	_eusart1TxTail,f	;volatile
  5338  02A1                     i1l1492:
  5339                           
  5340                           ;mcc_generated_files/eusart1.c: 213:         if(sizeof(eusart1TxBuffer) <= eusart1TxTail
      +                          )
  5341  02A1  3008               	movlw	8
  5342  02A2  0246               	subwf	_eusart1TxTail,w	;volatile
  5343  02A3  1C03               	skipc
  5344  02A4  2AA6               	goto	u46_21
  5345  02A5  2AA7               	goto	u46_20
  5346  02A6                     u46_21:
  5347  02A6  2AA8               	goto	i1l1496
  5348  02A7                     u46_20:
  5349  02A7                     i1l1494:
  5350                           
  5351                           ;mcc_generated_files/eusart1.c: 214:         {;mcc_generated_files/eusart1.c: 215:      
      +                                 eusart1TxTail = 0;
  5352  02A7  01C6               	clrf	_eusart1TxTail	;volatile
  5353  02A8                     i1l1496:
  5354                           
  5355                           ;mcc_generated_files/eusart1.c: 217:         eusart1TxBufferRemaining++;
  5356  02A8  3001               	movlw	1
  5357  02A9  00F0               	movwf	??_EUSART1_Transmit_ISR
  5358  02AA  0870               	movf	??_EUSART1_Transmit_ISR,w
  5359  02AB  07C5               	addwf	_eusart1TxBufferRemaining,f	;volatile
  5360                           
  5361                           ;mcc_generated_files/eusart1.c: 218:     }
  5362  02AC  2AAF               	goto	i1l188
  5363  02AD                     i1l185:	
  5364                           ;mcc_generated_files/eusart1.c: 219:     else
  5365                           
  5366                           
  5367                           ;mcc_generated_files/eusart1.c: 220:     {;mcc_generated_files/eusart1.c: 221:         P
      +                          IE3bits.TX1IE = 0;
  5368  02AD  014E               	movlb	14	; select bank14
  5369  02AE  1219               	bcf	25,4	;volatile
  5370  02AF                     i1l188:
  5371  02AF  0008               	return
  5372  02B0                     __end_of_EUSART1_Transmit_ISR:
  5373                           
  5374                           	psect	text22
  5375  01B0                     __ptext22:	
  5376 ;; *************** function _EUSART1_Receive_ISR *****************
  5377 ;; Defined at:
  5378 ;;		line 225 in file "mcc_generated_files/eusart1.c"
  5379 ;; Parameters:    Size  Location     Type
  5380 ;;		None
  5381 ;; Auto vars:     Size  Location     Type
  5382 ;;		None
  5383 ;; Return value:  Size  Location     Type
  5384 ;;                  1    wreg      void 
  5385 ;; Registers used:
  5386 ;;		wreg, fsr1l, fsr1h, status,2, status,0, pclath, cstack
  5387 ;; Tracked objects:
  5388 ;;		On entry : 0/0
  5389 ;;		On exit  : 0/0
  5390 ;;		Unchanged: 0/0
  5391 ;; Data sizes:     COMMON   BANK0   BANK1   BANK2   BANK3   BANK4   BANK5   BANK6   BANK7   BANK8   BANK9  BANK10  BANK1
      +1  BANK12  BANK13  BANK14  BANK15  BANK16  BANK17  BANK18  BANK19  BANK20  BANK21  BANK22  BANK23  BANK24  BANK25
  5392 ;;      Params:         0       0       0       0       0       0       0       0       0       0       0       0       
      +0       0       0       0       0       0       0       0       0       0       0       0       0       0       0
  5393 ;;      Locals:         0       0       0       0       0       0       0       0       0       0       0       0       
      +0       0       0       0       0       0       0       0       0       0       0       0       0       0       0
  5394 ;;      Temps:          0       0       0       0       0       0       0       0       0       0       0       0       
      +0       0       0       0       0       0       0       0       0       0       0       0       0       0       0
  5395 ;;      Totals:         0       0       0       0       0       0       0       0       0       0       0       0       
      +0       0       0       0       0       0       0       0       0       0       0       0       0       0       0
  5396 ;;Total ram usage:        0 bytes
  5397 ;; Hardware stack levels used: 1
  5398 ;; Hardware stack levels required when called: 2
  5399 ;; This function calls:
  5400 ;;		Absolute function
  5401 ;;		_EUSART1_DefaultErrorHandler
  5402 ;;		_EUSART1_DefaultFramingErrorHandler
  5403 ;;		_EUSART1_DefaultOverrunErrorHandler
  5404 ;;		_EUSART1_RxDataHandler
  5405 ;; This function is called by:
  5406 ;;		_EUSART1_Initialize
  5407 ;;		_INTERRUPT_InterruptManager
  5408 ;; This function uses a non-reentrant model
  5409 ;;
  5410                           
  5411  01B0                     _EUSART1_Receive_ISR:	
  5412                           ;psect for function _EUSART1_Receive_ISR
  5413                           
  5414  01B0                     i1l1498:	
  5415                           ;incstack = 0
  5416                           ; Regs used in _EUSART1_Receive_ISR: [wreg+fsr1l+fsr1h+status,2+status,0+pclath+cstack]
  5417                           
  5418                           
  5419                           ;mcc_generated_files/eusart1.c: 228:     eusart1RxStatusBuffer[eusart1RxHead].status = 0
      +                          ;
  5420  01B0  087C               	movf	_eusart1RxHead,w	;volatile
  5421  01B1  3E20               	addlw	(low (_eusart1RxStatusBuffer| 0))& (0+255)
  5422  01B2  0086               	movwf	6
  5423  01B3  0187               	clrf	7
  5424  01B4  0181               	clrf	1
  5425  01B5                     i1l1500:
  5426                           
  5427                           ;mcc_generated_files/eusart1.c: 230:     if(RC1STAbits.FERR){
  5428  01B5  0142               	movlb	2	; select bank2
  5429  01B6  1D1D               	btfss	29,2	;volatile
  5430  01B7  29B9               	goto	u47_21
  5431  01B8  29BA               	goto	u47_20
  5432  01B9                     u47_21:
  5433  01B9  29C5               	goto	i1l1506
  5434  01BA                     u47_20:
  5435  01BA                     i1l1502:
  5436                           
  5437                           ;mcc_generated_files/eusart1.c: 231:         eusart1RxStatusBuffer[eusart1RxHead].ferr =
      +                           1;
  5438  01BA  087C               	movf	_eusart1RxHead,w	;volatile
  5439  01BB  3E20               	addlw	(low (_eusart1RxStatusBuffer| 0))& (0+255)
  5440  01BC  0086               	movwf	6
  5441  01BD  0187               	clrf	7
  5442  01BE  1481               	bsf	1,1
  5443  01BF                     i1l1504:
  5444                           
  5445                           ;mcc_generated_files/eusart1.c: 232:         EUSART1_FramingErrorHandler();
  5446  01BF  0140               	movlb	0	; select bank0
  5447  01C0  083D               	movf	_EUSART1_FramingErrorHandler+1,w
  5448  01C1  008A               	movwf	10
  5449  01C2  083C               	movf	_EUSART1_FramingErrorHandler,w
  5450  01C3  000A               	callw
  5451  01C4  3181               	pagesel	$
  5452  01C5                     i1l1506:
  5453                           
  5454                           ;mcc_generated_files/eusart1.c: 235:     if(RC1STAbits.OERR){
  5455  01C5  0142               	movlb	2	; select bank2
  5456  01C6  1C9D               	btfss	29,1	;volatile
  5457  01C7  29C9               	goto	u48_21
  5458  01C8  29CA               	goto	u48_20
  5459  01C9                     u48_21:
  5460  01C9  29D5               	goto	i1l1512
  5461  01CA                     u48_20:
  5462  01CA                     i1l1508:
  5463                           
  5464                           ;mcc_generated_files/eusart1.c: 236:         eusart1RxStatusBuffer[eusart1RxHead].oerr =
      +                           1;
  5465  01CA  087C               	movf	_eusart1RxHead,w	;volatile
  5466  01CB  3E20               	addlw	(low (_eusart1RxStatusBuffer| 0))& (0+255)
  5467  01CC  0086               	movwf	6
  5468  01CD  0187               	clrf	7
  5469  01CE  1501               	bsf	1,2
  5470  01CF                     i1l1510:
  5471                           
  5472                           ;mcc_generated_files/eusart1.c: 237:         EUSART1_OverrunErrorHandler();
  5473  01CF  0140               	movlb	0	; select bank0
  5474  01D0  083B               	movf	_EUSART1_OverrunErrorHandler+1,w
  5475  01D1  008A               	movwf	10
  5476  01D2  083A               	movf	_EUSART1_OverrunErrorHandler,w
  5477  01D3  000A               	callw
  5478  01D4  3181               	pagesel	$
  5479  01D5                     i1l1512:
  5480                           
  5481                           ;mcc_generated_files/eusart1.c: 240:     if(eusart1RxStatusBuffer[eusart1RxHead].status)
      +                          {
  5482  01D5  087C               	movf	_eusart1RxHead,w	;volatile
  5483  01D6  3E20               	addlw	(low (_eusart1RxStatusBuffer| 0))& (0+255)
  5484  01D7  0086               	movwf	6
  5485  01D8  0187               	clrf	7
  5486  01D9  0801               	movf	1,w
  5487  01DA  1903               	btfsc	3,2
  5488  01DB  29DD               	goto	u49_21
  5489  01DC  29DE               	goto	u49_20
  5490  01DD                     u49_21:
  5491  01DD  29E5               	goto	i1l1516
  5492  01DE                     u49_20:
  5493  01DE                     i1l1514:
  5494                           
  5495                           ;mcc_generated_files/eusart1.c: 241:         EUSART1_ErrorHandler();
  5496  01DE  0140               	movlb	0	; select bank0
  5497  01DF  0839               	movf	_EUSART1_ErrorHandler+1,w
  5498  01E0  008A               	movwf	10
  5499  01E1  0838               	movf	_EUSART1_ErrorHandler,w
  5500  01E2  000A               	callw
  5501  01E3  3181               	pagesel	$
  5502                           
  5503                           ;mcc_generated_files/eusart1.c: 242:     } else {
  5504  01E4  29E8               	goto	i1l195
  5505  01E5                     i1l1516:
  5506                           
  5507                           ;mcc_generated_files/eusart1.c: 243:         EUSART1_RxDataHandler();
  5508  01E5  3182  22CF  3181   	fcall	_EUSART1_RxDataHandler
  5509  01E8                     i1l195:
  5510  01E8  0008               	return
  5511  01E9                     __end_of_EUSART1_Receive_ISR:
  5512                           
  5513                           	psect	text23
  5514  035E                     __ptext23:	
  5515 ;; *************** function _EUSART1_DefaultOverrunErrorHandler *****************
  5516 ;; Defined at:
  5517 ;;		line 261 in file "mcc_generated_files/eusart1.c"
  5518 ;; Parameters:    Size  Location     Type
  5519 ;;		None
  5520 ;; Auto vars:     Size  Location     Type
  5521 ;;		None
  5522 ;; Return value:  Size  Location     Type
  5523 ;;                  1    wreg      void 
  5524 ;; Registers used:
  5525 ;;		None
  5526 ;; Tracked objects:
  5527 ;;		On entry : 0/0
  5528 ;;		On exit  : 0/0
  5529 ;;		Unchanged: 0/0
  5530 ;; Data sizes:     COMMON   BANK0   BANK1   BANK2   BANK3   BANK4   BANK5   BANK6   BANK7   BANK8   BANK9  BANK10  BANK1
      +1  BANK12  BANK13  BANK14  BANK15  BANK16  BANK17  BANK18  BANK19  BANK20  BANK21  BANK22  BANK23  BANK24  BANK25
  5531 ;;      Params:         0       0       0       0       0       0       0       0       0       0       0       0       
      +0       0       0       0       0       0       0       0       0       0       0       0       0       0       0
  5532 ;;      Locals:         0       0       0       0       0       0       0       0       0       0       0       0       
      +0       0       0       0       0       0       0       0       0       0       0       0       0       0       0
  5533 ;;      Temps:          0       0       0       0       0       0       0       0       0       0       0       0       
      +0       0       0       0       0       0       0       0       0       0       0       0       0       0       0
  5534 ;;      Totals:         0       0       0       0       0       0       0       0       0       0       0       0       
      +0       0       0       0       0       0       0       0       0       0       0       0       0       0       0
  5535 ;;Total ram usage:        0 bytes
  5536 ;; Hardware stack levels used: 1
  5537 ;; This function calls:
  5538 ;;		Nothing
  5539 ;; This function is called by:
  5540 ;;		_EUSART1_Initialize
  5541 ;;		_EUSART1_Receive_ISR
  5542 ;; This function uses a non-reentrant model
  5543 ;;
  5544                           
  5545  035E                     _EUSART1_DefaultOverrunErrorHandler:	
  5546                           ;psect for function _EUSART1_DefaultOverrunErrorHandler
  5547                           
  5548  035E                     i1l1476:	
  5549                           ;incstack = 0
  5550                           ; Regs used in _EUSART1_DefaultOverrunErrorHandler: []
  5551                           
  5552                           
  5553                           ;mcc_generated_files/eusart1.c: 264:     RC1STAbits.CREN = 0;
  5554  035E  0142               	movlb	2	; select bank2
  5555  035F  121D               	bcf	29,4	;volatile
  5556                           
  5557                           ;mcc_generated_files/eusart1.c: 265:     RC1STAbits.CREN = 1;
  5558  0360  161D               	bsf	29,4	;volatile
  5559  0361                     i1l205:
  5560  0361  0008               	return
  5561  0362                     __end_of_EUSART1_DefaultOverrunErrorHandler:
  5562                           
  5563                           	psect	text24
  5564  036C                     __ptext24:	
  5565 ;; *************** function _EUSART1_DefaultFramingErrorHandler *****************
  5566 ;; Defined at:
  5567 ;;		line 259 in file "mcc_generated_files/eusart1.c"
  5568 ;; Parameters:    Size  Location     Type
  5569 ;;		None
  5570 ;; Auto vars:     Size  Location     Type
  5571 ;;		None
  5572 ;; Return value:  Size  Location     Type
  5573 ;;                  1    wreg      void 
  5574 ;; Registers used:
  5575 ;;		None
  5576 ;; Tracked objects:
  5577 ;;		On entry : 0/0
  5578 ;;		On exit  : 0/0
  5579 ;;		Unchanged: 0/0
  5580 ;; Data sizes:     COMMON   BANK0   BANK1   BANK2   BANK3   BANK4   BANK5   BANK6   BANK7   BANK8   BANK9  BANK10  BANK1
      +1  BANK12  BANK13  BANK14  BANK15  BANK16  BANK17  BANK18  BANK19  BANK20  BANK21  BANK22  BANK23  BANK24  BANK25
  5581 ;;      Params:         0       0       0       0       0       0       0       0       0       0       0       0       
      +0       0       0       0       0       0       0       0       0       0       0       0       0       0       0
  5582 ;;      Locals:         0       0       0       0       0       0       0       0       0       0       0       0       
      +0       0       0       0       0       0       0       0       0       0       0       0       0       0       0
  5583 ;;      Temps:          0       0       0       0       0       0       0       0       0       0       0       0       
      +0       0       0       0       0       0       0       0       0       0       0       0       0       0       0
  5584 ;;      Totals:         0       0       0       0       0       0       0       0       0       0       0       0       
      +0       0       0       0       0       0       0       0       0       0       0       0       0       0       0
  5585 ;;Total ram usage:        0 bytes
  5586 ;; Hardware stack levels used: 1
  5587 ;; This function calls:
  5588 ;;		Nothing
  5589 ;; This function is called by:
  5590 ;;		_EUSART1_Initialize
  5591 ;;		_EUSART1_Receive_ISR
  5592 ;; This function uses a non-reentrant model
  5593 ;;
  5594                           
  5595  036C                     _EUSART1_DefaultFramingErrorHandler:	
  5596                           ;psect for function _EUSART1_DefaultFramingErrorHandler
  5597                           
  5598  036C                     i1l202:	
  5599                           ;incstack = 0
  5600                           ; Regs used in _EUSART1_DefaultFramingErrorHandler: []
  5601                           
  5602  036C  0008               	return
  5603  036D                     __end_of_EUSART1_DefaultFramingErrorHandler:
  5604                           
  5605                           	psect	text25
  5606  0362                     __ptext25:	
  5607 ;; *************** function _EUSART1_DefaultErrorHandler *****************
  5608 ;; Defined at:
  5609 ;;		line 269 in file "mcc_generated_files/eusart1.c"
  5610 ;; Parameters:    Size  Location     Type
  5611 ;;		None
  5612 ;; Auto vars:     Size  Location     Type
  5613 ;;		None
  5614 ;; Return value:  Size  Location     Type
  5615 ;;                  1    wreg      void 
  5616 ;; Registers used:
  5617 ;;		wreg, fsr1l, fsr1h, status,2, status,0, pclath, cstack
  5618 ;; Tracked objects:
  5619 ;;		On entry : 0/0
  5620 ;;		On exit  : 0/0
  5621 ;;		Unchanged: 0/0
  5622 ;; Data sizes:     COMMON   BANK0   BANK1   BANK2   BANK3   BANK4   BANK5   BANK6   BANK7   BANK8   BANK9  BANK10  BANK1
      +1  BANK12  BANK13  BANK14  BANK15  BANK16  BANK17  BANK18  BANK19  BANK20  BANK21  BANK22  BANK23  BANK24  BANK25
  5623 ;;      Params:         0       0       0       0       0       0       0       0       0       0       0       0       
      +0       0       0       0       0       0       0       0       0       0       0       0       0       0       0
  5624 ;;      Locals:         0       0       0       0       0       0       0       0       0       0       0       0       
      +0       0       0       0       0       0       0       0       0       0       0       0       0       0       0
  5625 ;;      Temps:          0       0       0       0       0       0       0       0       0       0       0       0       
      +0       0       0       0       0       0       0       0       0       0       0       0       0       0       0
  5626 ;;      Totals:         0       0       0       0       0       0       0       0       0       0       0       0       
      +0       0       0       0       0       0       0       0       0       0       0       0       0       0       0
  5627 ;;Total ram usage:        0 bytes
  5628 ;; Hardware stack levels used: 1
  5629 ;; Hardware stack levels required when called: 1
  5630 ;; This function calls:
  5631 ;;		_EUSART1_RxDataHandler
  5632 ;; This function is called by:
  5633 ;;		_EUSART1_Initialize
  5634 ;;		_EUSART1_Receive_ISR
  5635 ;; This function uses a non-reentrant model
  5636 ;;
  5637                           
  5638  0362                     _EUSART1_DefaultErrorHandler:	
  5639                           ;psect for function _EUSART1_DefaultErrorHandler
  5640                           
  5641  0362                     i1l1478:	
  5642                           ;incstack = 0
  5643                           ; Regs used in _EUSART1_DefaultErrorHandler: [wreg+fsr1l+fsr1h+status,2+status,0+pclath+
      +                          cstack]
  5644                           
  5645                           
  5646                           ;mcc_generated_files/eusart1.c: 270:     EUSART1_RxDataHandler();
  5647  0362  3182  22CF  3183   	fcall	_EUSART1_RxDataHandler
  5648  0365                     i1l208:
  5649  0365  0008               	return
  5650  0366                     __end_of_EUSART1_DefaultErrorHandler:
  5651                           
  5652                           	psect	text26
  5653  02CF                     __ptext26:	
  5654 ;; *************** function _EUSART1_RxDataHandler *****************
  5655 ;; Defined at:
  5656 ;;		line 249 in file "mcc_generated_files/eusart1.c"
  5657 ;; Parameters:    Size  Location     Type
  5658 ;;		None
  5659 ;; Auto vars:     Size  Location     Type
  5660 ;;		None
  5661 ;; Return value:  Size  Location     Type
  5662 ;;                  1    wreg      void 
  5663 ;; Registers used:
  5664 ;;		wreg, fsr1l, fsr1h, status,2, status,0
  5665 ;; Tracked objects:
  5666 ;;		On entry : 0/0
  5667 ;;		On exit  : 0/0
  5668 ;;		Unchanged: 0/0
  5669 ;; Data sizes:     COMMON   BANK0   BANK1   BANK2   BANK3   BANK4   BANK5   BANK6   BANK7   BANK8   BANK9  BANK10  BANK1
      +1  BANK12  BANK13  BANK14  BANK15  BANK16  BANK17  BANK18  BANK19  BANK20  BANK21  BANK22  BANK23  BANK24  BANK25
  5670 ;;      Params:         0       0       0       0       0       0       0       0       0       0       0       0       
      +0       0       0       0       0       0       0       0       0       0       0       0       0       0       0
  5671 ;;      Locals:         0       0       0       0       0       0       0       0       0       0       0       0       
      +0       0       0       0       0       0       0       0       0       0       0       0       0       0       0
  5672 ;;      Temps:          1       0       0       0       0       0       0       0       0       0       0       0       
      +0       0       0       0       0       0       0       0       0       0       0       0       0       0       0
  5673 ;;      Totals:         1       0       0       0       0       0       0       0       0       0       0       0       
      +0       0       0       0       0       0       0       0       0       0       0       0       0       0       0
  5674 ;;Total ram usage:        1 bytes
  5675 ;; Hardware stack levels used: 1
  5676 ;; This function calls:
  5677 ;;		Nothing
  5678 ;; This function is called by:
  5679 ;;		_EUSART1_Receive_ISR
  5680 ;;		_EUSART1_DefaultErrorHandler
  5681 ;; This function uses a non-reentrant model
  5682 ;;
  5683                           
  5684  02CF                     _EUSART1_RxDataHandler:	
  5685                           ;psect for function _EUSART1_RxDataHandler
  5686                           
  5687  02CF                     i1l1396:	
  5688                           ;incstack = 0
  5689                           ; Regs used in _EUSART1_RxDataHandler: [wreg+fsr1l+fsr1h+status,2+status,0]
  5690                           
  5691                           
  5692                           ;mcc_generated_files/eusart1.c: 251:     eusart1RxBuffer[eusart1RxHead++] = RC1REG;
  5693  02CF  0142               	movlb	2	; select bank2
  5694  02D0  0819               	movf	25,w	;volatile
  5695  02D1  00F0               	movwf	??_EUSART1_RxDataHandler
  5696  02D2  087C               	movf	_eusart1RxHead,w
  5697  02D3  3EC0               	addlw	(low (_eusart1RxBuffer| 0))& (0+255)
  5698  02D4  0086               	movwf	6
  5699  02D5  0187               	clrf	7
  5700  02D6  0870               	movf	??_EUSART1_RxDataHandler,w
  5701  02D7  0081               	movwf	1
  5702  02D8                     i1l1398:
  5703  02D8  3001               	movlw	1
  5704  02D9  00F0               	movwf	??_EUSART1_RxDataHandler
  5705  02DA  0870               	movf	??_EUSART1_RxDataHandler,w
  5706  02DB  07FC               	addwf	_eusart1RxHead,f	;volatile
  5707  02DC                     i1l1400:
  5708                           
  5709                           ;mcc_generated_files/eusart1.c: 252:     if(sizeof(eusart1RxBuffer) <= eusart1RxHead)
  5710  02DC  3008               	movlw	8
  5711  02DD  027C               	subwf	_eusart1RxHead,w	;volatile
  5712  02DE  1C03               	skipc
  5713  02DF  2AE1               	goto	u39_21
  5714  02E0  2AE2               	goto	u39_20
  5715  02E1                     u39_21:
  5716  02E1  2AE3               	goto	i1l1404
  5717  02E2                     u39_20:
  5718  02E2                     i1l1402:
  5719                           
  5720                           ;mcc_generated_files/eusart1.c: 253:     {;mcc_generated_files/eusart1.c: 254:         e
      +                          usart1RxHead = 0;
  5721  02E2  01FC               	clrf	_eusart1RxHead	;volatile
  5722  02E3                     i1l1404:
  5723                           
  5724                           ;mcc_generated_files/eusart1.c: 256:     eusart1RxCount++;
  5725  02E3  3001               	movlw	1
  5726  02E4  00F0               	movwf	??_EUSART1_RxDataHandler
  5727  02E5  0870               	movf	??_EUSART1_RxDataHandler,w
  5728  02E6  0140               	movlb	0	; select bank0
  5729  02E7  07C3               	addwf	_eusart1RxCount,f	;volatile
  5730  02E8                     i1l199:
  5731  02E8  0008               	return
  5732  02E9                     __end_of_EUSART1_RxDataHandler:
  5733  007E                     btemp	set	126	;btemp
  5734  007E                     int$flags	set	126
  5735  007E                     wtemp0	set	126
  5736                           
  5737                           	psect	config
  5738                           
  5739                           ;Config register CONFIG1 @ 0x8007
  5740                           ;	External Oscillator mode selection bits
  5741                           ;	FEXTOSC = OFF, Oscillator not enabled
  5742                           ;	Power-up default value for COSC bits
  5743                           ;	RSTOSC = HFINTPLL, HFINTOSC with 2x PLL, with OSCFRQ = 16 MHz and CDIV = 1:1 (FOSC = 3
      +                          2 MHz)
  5744                           ;	Clock Out Enable bit
  5745                           ;	CLKOUTEN = OFF, CLKOUT function is disabled; i/o or oscillator function on OSC2
  5746                           ;	Clock Switch Enable bit
  5747                           ;	CSWEN = ON, Writing to NOSC and NDIV is allowed
  5748                           ;	Fail-Safe Clock Monitor Enable bit
  5749                           ;	FCMEN = ON, FSCM timer enabled
  5750  8007                     	org	32775
  5751  8007  3F9C               	dw	16284
  5752                           
  5753                           ;Config register CONFIG2 @ 0x8008
  5754                           ;	Master Clear Enable bit
  5755                           ;	MCLRE = ON, MCLR pin is Master Clear function
  5756                           ;	Power-up Timer Enable bit
  5757                           ;	PWRTS = OFF, PWRT disabled
  5758                           ;	Low-Power BOR enable bit
  5759                           ;	LPBOREN = OFF, ULPBOR disabled
  5760                           ;	Brown-out reset enable bits
  5761                           ;	BOREN = ON, Brown-out Reset Enabled, SBOREN bit is ignored
  5762                           ;	Brown-out Reset Voltage Selection
  5763                           ;	BORV = LO, Brown-out Reset Voltage (VBOR) set to 2.45V
  5764                           ;	Zero-cross detect disable
  5765                           ;	ZCD = OFF, Zero-cross detect circuit is disabled at POR.
  5766                           ;	Peripheral Pin Select one-way control
  5767                           ;	PPS1WAY = ON, The PPSLOCK bit can be cleared and set only once in software
  5768                           ;	Stack Overflow/Underflow Reset Enable bit
  5769                           ;	STVREN = ON, Stack Overflow or Underflow will cause a reset
  5770  8008                     	org	32776
  5771  8008  3FFF               	dw	16383
  5772                           
  5773                           ;Config register CONFIG3 @ 0x8009
  5774                           ;	WDT Period Select bits
  5775                           ;	WDTCPS = WDTCPS_31, Divider ratio 1:65536; software control of WDTPS
  5776                           ;	WDT operating mode
  5777                           ;	WDTE = OFF, WDT Disabled, SWDTEN is ignored
  5778                           ;	WDT Window Select bits
  5779                           ;	WDTCWS = WDTCWS_7, window always open (100%); software control; keyed access not requi
      +                          red
  5780                           ;	WDT input clock selector
  5781                           ;	WDTCCS = SC, Software Control
  5782  8009                     	org	32777
  5783  8009  3F9F               	dw	16287
  5784                           
  5785                           ;Config register CONFIG4 @ 0x800A
  5786                           ;	Boot Block Size Selection bits
  5787                           ;	BBSIZE = BB512, 512 words boot block size
  5788                           ;	Boot Block Enable bit
  5789                           ;	BBEN = OFF, Boot Block disabled
  5790                           ;	SAF Enable bit
  5791                           ;	SAFEN = OFF, SAF disabled
  5792                           ;	Application Block Write Protection bit
  5793                           ;	WRTAPP = OFF, Application Block not write protected
  5794                           ;	Boot Block Write Protection bit
  5795                           ;	WRTB = OFF, Boot Block not write protected
  5796                           ;	Configuration Register Write Protection bit
  5797                           ;	WRTC = OFF, Configuration Register not write protected
  5798                           ;	Data EEPROM write protection bit
  5799                           ;	WRTD = OFF, Data EEPROM NOT write protected
  5800                           ;	Storage Area Flash Write Protection bit
  5801                           ;	WRTSAF = OFF, SAF not write protected
  5802                           ;	Low Voltage Programming Enable bit
  5803                           ;	LVP = ON, Low Voltage programming enabled. MCLR/Vpp pin function is MCLR.
  5804  800A                     	org	32778
  5805  800A  3FFF               	dw	16383
  5806                           
  5807                           ;Config register CONFIG5 @ 0x800B
  5808                           ;	UserNVM Program memory code protection bit
  5809                           ;	CP = OFF, UserNVM code protection disabled
  5810  800B                     	org	32779
  5811  800B  3FFF               	dw	16383

Data Sizes:
    Strings     37
    Constant    0
    Data        0
    BSS         81
    Persistent  32
    Stack       0

Auto Spaces:
    Space          Size  Autos    Used
    COMMON           14     12      13
    BANK0            80     34      74
    BANK1            80      0      40
    BANK2            80      0       0
    BANK3            80      0       0
    BANK4            80      0       0
    BANK5            80      0       0
    BANK6            80      0       0
    BANK7            80      0       0
    BANK8            80      0       0
    BANK9            80      0       0
    BANK10           80      0       0
    BANK11           80      0       0
    BANK12           80      0       0
    BANK13           80      0       0
    BANK14           80      0       0
    BANK15           80      0       0
    BANK16           80      0       0
    BANK17           80      0       0
    BANK18           80      0       0
    BANK19           80      0       0
    BANK20           80      0       0
    BANK21           80      0       0
    BANK22           80      0       0
    BANK23           80      0       0
    BANK24           80      0       0
    BANK25           32      0       0

Pointer List with Targets:

    vfpfcnvrt@ap	PTR PTR void  size(1) Largest target is 1
		 -> printf@ap(BANK0[1]), 

    S833$source	PTR const unsigned char  size(1) Largest target is 0

    fputc@fp...source	PTR const unsigned char  size(1) Largest target is 0

    S833$buffer	PTR unsigned char  size(1) Largest target is 0

    fputc@fp...buffer	PTR unsigned char  size(1) Largest target is 0

    fputc@fp	PTR struct _IO_FILE size(1) Largest target is 0
		 -> NULL(NULL[0]), 

    vfprintf@ap	PTR PTR void  size(1) Largest target is 1
		 -> printf@ap(BANK0[1]), 

    vfprintf@fp	PTR struct _IO_FILE size(1) Largest target is 0
		 -> NULL(NULL[0]), 

    vfprintf@fmt	PTR const unsigned char  size(2) Largest target is 31
		 -> STR_4(CODE[31]), STR_3(CODE[2]), STR_2(CODE[2]), STR_1(CODE[2]), 

    vfprintf@cfmt	PTR unsigned char  size(2) Largest target is 31
		 -> STR_4(CODE[31]), STR_3(CODE[2]), STR_2(CODE[2]), STR_1(CODE[2]), 

    vfpfcnvrt@fp	PTR struct _IO_FILE size(1) Largest target is 0
		 -> NULL(NULL[0]), 

    vfpfcnvrt@fmt	PTR PTR unsigned char  size(1) Largest target is 2
		 -> vfprintf@cfmt(BANK0[2]), 

    printf@fmt	PTR const unsigned char  size(2) Largest target is 31
		 -> STR_4(CODE[31]), STR_3(CODE[2]), STR_2(CODE[2]), STR_1(CODE[2]), 

    printf@ap	PTR void [1] size(1) Largest target is 2
		 -> ?_printf(BANK0[2]), 

    verify_uart@arr	PTR unsigned char  size(1) Largest target is 16
		 -> main@arr(BANK0[8]), 

    main@arr	PTR unsigned char [8] size(1) Largest target is 0

    EUSART1_SetRxInterruptHandler@interruptHandler	PTR FTN()void  size(2) Largest target is 1
		 -> EUSART1_Receive_ISR(), 

    EUSART1_SetTxInterruptHandler@interruptHandler	PTR FTN()void  size(2) Largest target is 1
		 -> EUSART1_Transmit_ISR(), 

    EUSART1_SetErrorHandler@interruptHandler	PTR FTN()void  size(2) Largest target is 1
		 -> EUSART1_DefaultErrorHandler(), 

    EUSART1_SetOverrunErrorHandler@interruptHandler	PTR FTN()void  size(2) Largest target is 1
		 -> EUSART1_DefaultOverrunErrorHandler(), 

    EUSART1_SetFramingErrorHandler@interruptHandler	PTR FTN()void  size(2) Largest target is 1
		 -> EUSART1_DefaultFramingErrorHandler(), 

    EUSART1_ErrorHandler	PTR FTN()void  size(2) Largest target is 1
		 -> Absolute function(), EUSART1_DefaultErrorHandler(), 

    EUSART1_OverrunErrorHandler	PTR FTN()void  size(2) Largest target is 1
		 -> Absolute function(), EUSART1_DefaultOverrunErrorHandler(), 

    EUSART1_FramingErrorHandler	PTR FTN()void  size(2) Largest target is 1
		 -> Absolute function(), EUSART1_DefaultFramingErrorHandler(), 

    EUSART1_RxDefaultInterruptHandler	PTR FTN()void  size(2) Largest target is 1
		 -> Absolute function(), EUSART1_Receive_ISR(), 

    EUSART1_TxDefaultInterruptHandler	PTR FTN()void  size(2) Largest target is 1
		 -> Absolute function(), EUSART1_Transmit_ISR(), 


Critical Paths under _main in COMMON

    _vfpfcnvrt->_fputc
    _fputc->_putch
    _putch->_EUSART1_Write
    _SYSTEM_Initialize->_EUSART1_Initialize
    _EUSART1_Initialize->_EUSART1_SetErrorHandler
    _EUSART1_Initialize->_EUSART1_SetFramingErrorHandler
    _EUSART1_Initialize->_EUSART1_SetOverrunErrorHandler
    _EUSART1_Initialize->_EUSART1_SetRxInterruptHandler
    _EUSART1_Initialize->_EUSART1_SetTxInterruptHandler

Critical Paths under _INTERRUPT_InterruptManager in COMMON

    _INTERRUPT_InterruptManager->_EUSART1_Transmit_ISR
    _EUSART1_Receive_ISR->_EUSART1_RxDataHandler
    _EUSART1_DefaultErrorHandler->_EUSART1_RxDataHandler

Critical Paths under _main in BANK0

    _main->_verify_uart
    _verify_uart->_printf
    _printf->_vfprintf
    _vfprintf->_vfpfcnvrt

Critical Paths under _INTERRUPT_InterruptManager in BANK0

    None.

Critical Paths under _main in BANK1

    None.

Critical Paths under _INTERRUPT_InterruptManager in BANK1

    None.

Critical Paths under _main in BANK2

    None.

Critical Paths under _INTERRUPT_InterruptManager in BANK2

    None.

Critical Paths under _main in BANK3

    None.

Critical Paths under _INTERRUPT_InterruptManager in BANK3

    None.

Critical Paths under _main in BANK4

    None.

Critical Paths under _INTERRUPT_InterruptManager in BANK4

    None.

Critical Paths under _main in BANK5

    None.

Critical Paths under _INTERRUPT_InterruptManager in BANK5

    None.

Critical Paths under _main in BANK6

    None.

Critical Paths under _INTERRUPT_InterruptManager in BANK6

    None.

Critical Paths under _main in BANK7

    None.

Critical Paths under _INTERRUPT_InterruptManager in BANK7

    None.

Critical Paths under _main in BANK8

    None.

Critical Paths under _INTERRUPT_InterruptManager in BANK8

    None.

Critical Paths under _main in BANK9

    None.

Critical Paths under _INTERRUPT_InterruptManager in BANK9

    None.

Critical Paths under _main in BANK10

    None.

Critical Paths under _INTERRUPT_InterruptManager in BANK10

    None.

Critical Paths under _main in BANK11

    None.

Critical Paths under _INTERRUPT_InterruptManager in BANK11

    None.

Critical Paths under _main in BANK12

    None.

Critical Paths under _INTERRUPT_InterruptManager in BANK12

    None.

Critical Paths under _main in BANK13

    None.

Critical Paths under _INTERRUPT_InterruptManager in BANK13

    None.

Critical Paths under _main in BANK14

    None.

Critical Paths under _INTERRUPT_InterruptManager in BANK14

    None.

Critical Paths under _main in BANK15

    None.

Critical Paths under _INTERRUPT_InterruptManager in BANK15

    None.

Critical Paths under _main in BANK16

    None.

Critical Paths under _INTERRUPT_InterruptManager in BANK16

    None.

Critical Paths under _main in BANK17

    None.

Critical Paths under _INTERRUPT_InterruptManager in BANK17

    None.

Critical Paths under _main in BANK18

    None.

Critical Paths under _INTERRUPT_InterruptManager in BANK18

    None.

Critical Paths under _main in BANK19

    None.

Critical Paths under _INTERRUPT_InterruptManager in BANK19

    None.

Critical Paths under _main in BANK20

    None.

Critical Paths under _INTERRUPT_InterruptManager in BANK20

    None.

Critical Paths under _main in BANK21

    None.

Critical Paths under _INTERRUPT_InterruptManager in BANK21

    None.

Critical Paths under _main in BANK22

    None.

Critical Paths under _INTERRUPT_InterruptManager in BANK22

    None.

Critical Paths under _main in BANK23

    None.

Critical Paths under _INTERRUPT_InterruptManager in BANK23

    None.

Critical Paths under _main in BANK24

    None.

Critical Paths under _INTERRUPT_InterruptManager in BANK24

    None.

Critical Paths under _main in BANK25

    None.

Critical Paths under _INTERRUPT_InterruptManager in BANK25

    None.

Call Graph Tables:

 ---------------------------------------------------------------------------------
 (Depth) Function   	        Calls       Base Space   Used Autos Params    Refs
 ---------------------------------------------------------------------------------
 (0) _main                                                 8     8      0    3120
                                             26 BANK0      8     8      0
                  _SYSTEM_Initialize
                        _verify_uart
 ---------------------------------------------------------------------------------
 (1) _verify_uart                                          6     6      0    2590
                                             20 BANK0      6     6      0
                       _EUSART1_Read
                _EUSART1_is_rx_ready
                             _printf
 ---------------------------------------------------------------------------------
 (2) _printf                                               6     4      2    2332
                                             16 BANK0      4     2      2
                           _vfprintf
 ---------------------------------------------------------------------------------
 (3) _vfprintf                                             8     5      3    1897
                                              8 BANK0      8     5      3
                          _vfpfcnvrt
 ---------------------------------------------------------------------------------
 (4) _vfpfcnvrt                                           40    38      2    1471
                                              0 BANK0      8     6      2
                              _fputc
 ---------------------------------------------------------------------------------
 (5) _fputc                                                8     5      3     957
                                              4 COMMON     8     5      3
                              _putch
 ---------------------------------------------------------------------------------
 (6) _putch                                                1     1      0      93
                                              3 COMMON     1     1      0
                      _EUSART1_Write
 ---------------------------------------------------------------------------------
 (7) _EUSART1_Write                                        2     2      0      62
                                              1 COMMON     2     2      0
 ---------------------------------------------------------------------------------
 (2) _EUSART1_is_rx_ready                                  0     0      0       0
 ---------------------------------------------------------------------------------
 (2) _EUSART1_Read                                         2     2      0      24
                                              1 COMMON     2     2      0
 ---------------------------------------------------------------------------------
 (1) _SYSTEM_Initialize                                    0     0      0     490
                 _EUSART1_Initialize
              _OSCILLATOR_Initialize
             _PIN_MANAGER_Initialize
                     _PMD_Initialize
 ---------------------------------------------------------------------------------
 (2) _PMD_Initialize                                       0     0      0       0
 ---------------------------------------------------------------------------------
 (2) _PIN_MANAGER_Initialize                               0     0      0       0
 ---------------------------------------------------------------------------------
 (2) _OSCILLATOR_Initialize                                0     0      0       0
 ---------------------------------------------------------------------------------
 (2) _EUSART1_Initialize                                   1     1      0     490
                                              3 COMMON     1     1      0
            _EUSART1_SetErrorHandler
     _EUSART1_SetFramingErrorHandler
     _EUSART1_SetOverrunErrorHandler
      _EUSART1_SetRxInterruptHandler
      _EUSART1_SetTxInterruptHandler
 ---------------------------------------------------------------------------------
 (3) _EUSART1_SetTxInterruptHandler                        2     0      2      98
                                              1 COMMON     2     0      2
 ---------------------------------------------------------------------------------
 (3) _EUSART1_SetRxInterruptHandler                        2     0      2      98
                                              1 COMMON     2     0      2
 ---------------------------------------------------------------------------------
 (3) _EUSART1_SetOverrunErrorHandler                       2     0      2      98
                                              1 COMMON     2     0      2
 ---------------------------------------------------------------------------------
 (3) _EUSART1_SetFramingErrorHandler                       2     0      2      98
                                              1 COMMON     2     0      2
 ---------------------------------------------------------------------------------
 (3) _EUSART1_SetErrorHandler                              2     0      2      98
                                              1 COMMON     2     0      2
 ---------------------------------------------------------------------------------
 Estimated maximum stack depth 7
 ---------------------------------------------------------------------------------
 (Depth) Function   	        Calls       Base Space   Used Autos Params    Refs
 ---------------------------------------------------------------------------------
 (8) _INTERRUPT_InterruptManager                           0     0      0       0
                   Absolute function *
                _EUSART1_Receive_ISR *
               _EUSART1_Transmit_ISR *
 ---------------------------------------------------------------------------------
 (9) _EUSART1_Transmit_ISR                                 1     1      0       0
                                              0 COMMON     1     1      0
 ---------------------------------------------------------------------------------
 (9) _EUSART1_Receive_ISR                                  0     0      0       0
                   Absolute function *
        _EUSART1_DefaultErrorHandler *
 _EUSART1_DefaultFramingErrorHandler *
 _EUSART1_DefaultOverrunErrorHandler *
              _EUSART1_RxDataHandler
 ---------------------------------------------------------------------------------
 (10) _EUSART1_DefaultOverrunErrorHandler                  0     0      0       0
 ---------------------------------------------------------------------------------
 (10) _EUSART1_DefaultFramingErrorHandler                  0     0      0       0
 ---------------------------------------------------------------------------------
 (10) _EUSART1_DefaultErrorHandler                         0     0      0       0
              _EUSART1_RxDataHandler
 ---------------------------------------------------------------------------------
 (10) _EUSART1_RxDataHandler                               1     1      0       0
                                              0 COMMON     1     1      0
 ---------------------------------------------------------------------------------
 (10) Absolute function(Fake)                              0     0      0       0
 ---------------------------------------------------------------------------------
 Estimated maximum stack depth 10
 ---------------------------------------------------------------------------------

 Call Graph Graphs:

 _main (ROOT)
   _SYSTEM_Initialize
     _EUSART1_Initialize
       _EUSART1_SetErrorHandler
       _EUSART1_SetFramingErrorHandler
       _EUSART1_SetOverrunErrorHandler
       _EUSART1_SetRxInterruptHandler
       _EUSART1_SetTxInterruptHandler
     _OSCILLATOR_Initialize
     _PIN_MANAGER_Initialize
     _PMD_Initialize
   _verify_uart
     _EUSART1_Read
     _EUSART1_is_rx_ready
     _printf
       _vfprintf
         _vfpfcnvrt
           _fputc
             _putch
               _EUSART1_Write

 _INTERRUPT_InterruptManager (ROOT)
   Absolute function(Fake) *
   _EUSART1_Receive_ISR *
     Absolute function(Fake) *
     _EUSART1_DefaultErrorHandler *
       _EUSART1_RxDataHandler
     _EUSART1_DefaultFramingErrorHandler *
     _EUSART1_DefaultOverrunErrorHandler *
     _EUSART1_RxDataHandler *
   _EUSART1_Transmit_ISR *

 Address spaces:
Name               Size   Autos  Total    Cost      Usage
BIGRAM             7F0      0       0       0        0.0%
EEDATA             100      0       0       0        0.0%
NULL                 0      0       0       0        0.0%
CODE                 0      0       0       0        0.0%
BITCOMMON            E      0       0       1        0.0%
BITSFR0              0      0       0       1        0.0%
SFR0                 0      0       0       1        0.0%
COMMON               E      C       D       2       92.9%
BITSFR1              0      0       0       2        0.0%
SFR1                 0      0       0       2        0.0%
BITSFR2              0      0       0       3        0.0%
SFR2                 0      0       0       3        0.0%
STACK                0      0       0       3        0.0%
BITBANK0            50      0       0       4        0.0%
BITSFR3              0      0       0       4        0.0%
SFR3                 0      0       0       4        0.0%
BANK0               50     22      4A       5       92.5%
BITSFR4              0      0       0       5        0.0%
SFR4                 0      0       0       5        0.0%
BITSFR5              0      0       0       6        0.0%
SFR5                 0      0       0       6        0.0%
ABS                  0      0      7F       6        0.0%
BITBANK1            50      0       0       7        0.0%
BITSFR6              0      0       0       7        0.0%
SFR6                 0      0       0       7        0.0%
BANK1               50      0      28       8       50.0%
BITSFR7              0      0       0       8        0.0%
SFR7                 0      0       0       8        0.0%
BITBANK2            50      0       0       9        0.0%
BITSFR8              0      0       0       9        0.0%
SFR8                 0      0       0       9        0.0%
BANK2               50      0       0      10        0.0%
BITSFR9              0      0       0      10        0.0%
SFR9                 0      0       0      10        0.0%
BITBANK3            50      0       0      11        0.0%
BITSFR10             0      0       0      11        0.0%
SFR10                0      0       0      11        0.0%
BANK3               50      0       0      12        0.0%
BITSFR11             0      0       0      12        0.0%
SFR11                0      0       0      12        0.0%
BITBANK4            50      0       0      13        0.0%
BITSFR12             0      0       0      13        0.0%
SFR12                0      0       0      13        0.0%
BANK4               50      0       0      14        0.0%
BITSFR13             0      0       0      14        0.0%
SFR13                0      0       0      14        0.0%
BITBANK5            50      0       0      15        0.0%
BITSFR14             0      0       0      15        0.0%
SFR14                0      0       0      15        0.0%
BANK5               50      0       0      16        0.0%
BITSFR15             0      0       0      16        0.0%
SFR15                0      0       0      16        0.0%
BITBANK6            50      0       0      17        0.0%
BITSFR16             0      0       0      17        0.0%
SFR16                0      0       0      17        0.0%
BANK6               50      0       0      18        0.0%
BITSFR17             0      0       0      18        0.0%
SFR17                0      0       0      18        0.0%
BITBANK7            50      0       0      19        0.0%
BITSFR18             0      0       0      19        0.0%
SFR18                0      0       0      19        0.0%
BANK7               50      0       0      20        0.0%
BITSFR19             0      0       0      20        0.0%
SFR19                0      0       0      20        0.0%
BITBANK8            50      0       0      21        0.0%
BITSFR20             0      0       0      21        0.0%
SFR20                0      0       0      21        0.0%
BANK8               50      0       0      22        0.0%
BITSFR21             0      0       0      22        0.0%
SFR21                0      0       0      22        0.0%
BITBANK9            50      0       0      23        0.0%
BITSFR22             0      0       0      23        0.0%
SFR22                0      0       0      23        0.0%
BANK9               50      0       0      24        0.0%
BITSFR23             0      0       0      24        0.0%
SFR23                0      0       0      24        0.0%
BITBANK10           50      0       0      25        0.0%
BITSFR24             0      0       0      25        0.0%
SFR24                0      0       0      25        0.0%
BANK10              50      0       0      26        0.0%
BITSFR25             0      0       0      26        0.0%
SFR25                0      0       0      26        0.0%
BITBANK11           50      0       0      27        0.0%
BITSFR26             0      0       0      27        0.0%
SFR26                0      0       0      27        0.0%
BANK11              50      0       0      28        0.0%
BITSFR27             0      0       0      28        0.0%
SFR27                0      0       0      28        0.0%
BITBANK12           50      0       0      29        0.0%
BITSFR28             0      0       0      29        0.0%
SFR28                0      0       0      29        0.0%
BANK12              50      0       0      30        0.0%
BITSFR29             0      0       0      30        0.0%
SFR29                0      0       0      30        0.0%
BITBANK13           50      0       0      31        0.0%
BITSFR30             0      0       0      31        0.0%
SFR30                0      0       0      31        0.0%
BANK13              50      0       0      32        0.0%
BITSFR31             0      0       0      32        0.0%
SFR31                0      0       0      32        0.0%
BITBANK14           50      0       0      33        0.0%
BITSFR32             0      0       0      33        0.0%
SFR32                0      0       0      33        0.0%
BANK14              50      0       0      34        0.0%
BITSFR33             0      0       0      34        0.0%
SFR33                0      0       0      34        0.0%
BITBANK15           50      0       0      35        0.0%
BITSFR34             0      0       0      35        0.0%
SFR34                0      0       0      35        0.0%
BANK15              50      0       0      36        0.0%
BITSFR35             0      0       0      36        0.0%
SFR35                0      0       0      36        0.0%
BITBANK16           50      0       0      37        0.0%
BITSFR36             0      0       0      37        0.0%
SFR36                0      0       0      37        0.0%
BANK16              50      0       0      38        0.0%
BITSFR37             0      0       0      38        0.0%
SFR37                0      0       0      38        0.0%
BITBANK17           50      0       0      39        0.0%
BITSFR38             0      0       0      39        0.0%
SFR38                0      0       0      39        0.0%
BANK17              50      0       0      40        0.0%
BITSFR39             0      0       0      40        0.0%
SFR39                0      0       0      40        0.0%
BITBANK18           50      0       0      41        0.0%
BITSFR40             0      0       0      41        0.0%
SFR40                0      0       0      41        0.0%
BANK18              50      0       0      42        0.0%
BITSFR41             0      0       0      42        0.0%
SFR41                0      0       0      42        0.0%
BITBANK19           50      0       0      43        0.0%
BITSFR42             0      0       0      43        0.0%
SFR42                0      0       0      43        0.0%
BANK19              50      0       0      44        0.0%
BITSFR43             0      0       0      44        0.0%
SFR43                0      0       0      44        0.0%
BITBANK20           50      0       0      45        0.0%
BITSFR44             0      0       0      45        0.0%
SFR44                0      0       0      45        0.0%
BANK20              50      0       0      46        0.0%
BITSFR45             0      0       0      46        0.0%
SFR45                0      0       0      46        0.0%
BITBANK21           50      0       0      47        0.0%
BITSFR46             0      0       0      47        0.0%
SFR46                0      0       0      47        0.0%
BANK21              50      0       0      48        0.0%
BITSFR47             0      0       0      48        0.0%
SFR47                0      0       0      48        0.0%
BITBANK22           50      0       0      49        0.0%
BITSFR48             0      0       0      49        0.0%
SFR48                0      0       0      49        0.0%
BANK22              50      0       0      50        0.0%
BITSFR49             0      0       0      50        0.0%
SFR49                0      0       0      50        0.0%
BITBANK23           50      0       0      51        0.0%
BITSFR50             0      0       0      51        0.0%
SFR50                0      0       0      51        0.0%
BANK23              50      0       0      52        0.0%
BITSFR51             0      0       0      52        0.0%
SFR51                0      0       0      52        0.0%
BITBANK24           50      0       0      53        0.0%
BITSFR52             0      0       0      53        0.0%
SFR52                0      0       0      53        0.0%
BANK24              50      0       0      54        0.0%
BITSFR53             0      0       0      54        0.0%
SFR53                0      0       0      54        0.0%
BITBANK25           20      0       0      55        0.0%
BITSFR54             0      0       0      55        0.0%
SFR54                0      0       0      55        0.0%
BANK25              20      0       0      56        0.0%
BITSFR55             0      0       0      56        0.0%
SFR55                0      0       0      56        0.0%
BITSFR56             0      0       0      57        0.0%
SFR56                0      0       0      57        0.0%
DATA                 0      0      7F      57        0.0%
BITSFR57             0      0       0      58        0.0%
SFR57                0      0       0      58        0.0%
BITSFR58             0      0       0      59        0.0%
SFR58                0      0       0      59        0.0%
BITSFR59             0      0       0      60        0.0%
SFR59                0      0       0      60        0.0%
BITSFR60             0      0       0      61        0.0%
SFR60                0      0       0      61        0.0%
BITSFR61             0      0       0      62        0.0%
SFR61                0      0       0      62        0.0%
BITSFR62             0      0       0      63        0.0%
SFR62                0      0       0      63        0.0%
BITSFR63             0      0       0      64        0.0%
SFR63                0      0       0      64        0.0%


Microchip Technology PIC Macro Assembler V2.36 build 20220127204148 
Symbol Table                                                                                   Wed Apr 20 11:36:55 2022

                      _eusart1TxBufferRemaining 0045                                              l70 0265  
                                           l211 0357                                             l220 0345  
                                           l214 0351                                             l223 034B  
                                           l304 012F                                             l217 035D  
                                           l154 0333                                             l148 01AF  
                                           l172 01F0                                             l173 01F9  
                                           l262 0307                                             l182 033F  
                                           l271 032A                                             l167 023C  
                                           l176 0212                                             l265 0310  
                                           l268 0314                                             l919 02FA  
                                           l952 00BD                                             l970 0170  
                                           l958 028D                                             u160 0314  
                                           u161 0313                                             u410 0332  
                                           u411 0330                                             u420 0333  
                                           u430 0219                                             u431 0218  
                                           u440 0233                                             u600 020D  
                                           u441 0232                                             u601 020C  
                                           u610 0135                                             u611 0134  
                                           u620 013A                                             u700 00F7  
                                           u621 0139                                             u701 00F6  
                                           u630 0149                                             u631 0148  
                                           u640 0167                                             u641 0166  
                                           u705 00F3                                             u650 0055  
                                           u651 0054                                             u580 01F0  
                                           u660 0076                                             u581 01EF  
                                           u645 0163                                             u661 0075  
                                           u590 01F5                                             u670 0289  
                                           u591 01F4                                             u671 0288  
                                           u680 00C9                                             u681 00C8  
                                           u690 00D7                                             u691 00D6  
                                           wreg 0009                                            l1100 0256  
                                          l1110 0260                                            l1102 0258  
                                          l1112 0262                                            l1104 025A  
                                          l1106 025C                                            l1108 025E  
                                          l1090 0245                                            l1420 0173  
                                          l1180 030B                                            l1092 0247  
                                          l1084 023D                                            l1430 018A  
                                          l1422 017A                                            l1182 030C  
                                          l1094 024A                                            l1086 0241  
                                          l1440 01A6                                            l1432 018C  
                                          l1424 0183                                            l1184 030F  
                                          l1096 024C                                            l1088 0243  
                                          l1176 0321                                            l1520 02FE  
                                          l1442 01AA                                            l1434 018D  
                                          l1426 0186                                            l1418 0171  
                                          l1178 0308                                            l1098 0254  
                                          l1522 0301                                            l1450 032B  
                                          l1610 01F5                                            l1444 01AB  
                                          l1436 0194                                            l1428 0188  
                                          l1524 0304                                            l1460 0229  
                                          l1620 020E                                            l1612 01FA  
                                          l1390 0352                                            l1446 01AC  
                                          l1438 019B                                            l1518 02FB  
                                          l1470 0239                                            l1462 022D  
                                          l1454 0213                                            l1614 0203  
                                          l1622 0210                                            l1606 01EA  
                                          l1630 013A                                            l1710 00F8  
                                          l1392 034C                                            l1448 01AD  
                                          l1472 023B                                            l1464 0233  
                                          l1456 0213                                            l1616 0207  
                                          l1608 01EA                                            l1624 033B  
                                          l1632 013F                                            l1640 0044  
                                          l1712 0100                                            l1720 0118  
                                          l1704 00D9                                            l1394 0358  
                                          l1386 0346                                            l1466 0234  
                                          l1458 0219                                            l1618 020D  
                                          l1634 0149                                            l1626 0130  
                                          l1650 0076                                            l1642 0055  
                                          l1714 0108                                            l1706 00E6  
                                          l1730 0319                                            l1388 0340  
                                          l1468 0236                                            l1636 0167  
                                          l1628 0135                                            l1660 0097  
                                          l1652 007E                                            l1644 005D  
                                          l1716 0110                                            l1708 00EA  
                                          l1732 031A                                            l1654 0089  
                                          l1646 0061                                            l1726 0315  
                                          l1648 0065                                            l1664 009A  
                                          l1680 0289                                            l1672 0268  
                                          l1728 0318                                            l1666 00B3  
                                          l1658 008F                                            l1674 026C  
                                          l1754 0124                                            l1690 00C0  
                                          l1676 026F                                            l1684 02E9  
                                          l1692 00C1                                            l1678 0280  
                                          l1686 02EE                                            l1694 00C9  
                                          l1696 00D0                                            l1698 00D7  
                                          STR_1 0366                                            STR_2 0368  
                                          STR_3 036A                                            STR_4 02B0  
                                          _LATA 0018                                            _LATB 0019  
                                          _LATC 001A                                            _PMD0 0796  
                                          i1l21 0029                                            _PMD1 0797  
                                          _PMD2 0798                                            _PMD3 0799  
                                          i1l16 001A                                            _PMD4 079A  
                                          i1l17 0029                                            _PMD5 079B  
                                          _PMD6 079C                                            _PMD7 079D  
                                          _PLLR 4480                                            _WPUA 1F39  
                                          _WPUB 1F44                                            _WPUC 1F4F  
                                 _EUSART1_Write 01E9                                            _dbuf 00A0  
                                          _main 0315                                   ?_EUSART1_Read 0070  
                                          _prec 0034                                            _nout 0030  
                                          fsr0h 0005                                            fsr1h 0007  
                                          indf0 0000                                            fsr0l 0004  
                                          indf1 0001                                            fsr1l 0006  
                                          btemp 007E                                            start 002B  
                 __end_of_OSCILLATOR_Initialize 0315                           _eusart1RxStatusBuffer 0020  
                                         ?_main 0070                                           i1l202 036C  
                                         i1l205 0361                                           i1l208 0365  
                                         i1l185 02AD                                           i1l195 01E8  
                                         i1l188 02AF                                           i1l199 02E8  
                                         _OSCEN 0891                                    vfpfcnvrt@fmt 0048  
                                         u45_20 0295                                           u53_20 000A  
                                         u45_21 0294                                           u53_21 0009  
                                         u46_20 02A7                                           u54_20 000F  
                                         u46_21 02A6                                           u54_21 000E  
                                         u39_20 02E2                                           u47_20 01BA  
                                         u55_20 0013                                           u39_21 02E1  
                                         u47_21 01B9                                           u55_21 0012  
                                         u48_20 01CA                                           u56_20 001E  
                                         u48_21 01C9                                           u56_21 001D  
                                         u49_20 01DE                                           u57_20 0022  
                                         u49_21 01DD                                           u57_21 0021  
                                         _TRISA 0012                                           _TRISB 0013  
                                         _TRISC 0014                            _EUSART1_Transmit_ISR 028E  
                                         _flags 0036                                           _fputc 0130  
                                         _width 0032                                           _putch 033A  
                                ?_EUSART1_Write 0070                                           pclath 000A  
                                ??_EUSART1_Read 0071                                           status 0003  
                                         wtemp0 007E      __end_of_EUSART1_DefaultFramingErrorHandler 036D  
          ??_EUSART1_DefaultFramingErrorHandler 0070             ?_EUSART1_DefaultFramingErrorHandler 0070  
            _EUSART1_DefaultFramingErrorHandler 036C                                    verify_uart@i 0060  
                               __initialization 002D                      __end_of_EUSART1_Initialize 01B0  
                                  __end_of_main 0321                     ?_INTERRUPT_InterruptManager 0070  
                                        ??_main 007C                           ?_EUSART1_Transmit_ISR 0070  
                                        ?_fputc 0074                                          _ANSELA 1F38  
                                        ?_putch 0070                                          _ANSELB 1F43  
                                        _ANSELC 1F4E                                          _RC1REG 0119  
                                        _RC1STA 011D                                          i1l1400 02DC  
                                        i1l1402 02E2                                          _RB7PPS 1F1F  
                                        i1l1404 02E3                                          i1l1500 01B5  
                                        i1l1510 01CF                                          i1l1502 01BA  
                                        i1l1512 01D5                                          i1l1504 01BF  
                                        _ODCONA 1F3A                                          i1l1514 01DE  
                                        i1l1506 01C5                                          _ODCONB 1F45  
                                        _ODCONC 1F50                                          i1l1516 01E5  
                                        i1l1508 01CA                                          i1l1490 029C  
                                        i1l1570 001E                                          i1l1562 0006  
                                        i1l1396 02CF                                          i1l1476 035E  
                                        i1l1492 02A1                                          i1l1572 0022  
                                        i1l1564 000A                                          i1l1398 02D8  
                                        i1l1478 0362                                          i1l1494 02A7  
                                        i1l1486 028E                                          i1l1566 000F  
                                        i1l1496 02A8                                          i1l1488 0295  
                                        i1l1568 0013                                          i1l1498 01B0  
                                        _INLVLA 1F3C                                          _INLVLB 1F47  
                                        _INLVLC 1F52                                          _OSCFRQ 0893  
                                        _TX1REG 011A                                          _TX1STA 011E  
                                  vfprintf@cfmt 0056                        ?_EUSART1_SetErrorHandler 0071  
                             verify_uart@rxData 005E                                          _printf 02E9  
              ??_EUSART1_SetOverrunErrorHandler 0073                 ?_EUSART1_SetOverrunErrorHandler 0071  
                                        fputc@c 0074                                  _PMD_Initialize 0321  
                              __end_of_vfprintf 028E                                 ??_EUSART1_Write 0071  
                               _eusart1RxBuffer 00C0                                 _eusart1TxBuffer 0028  
                             _SYSTEM_Initialize 02FB                         __end_of__initialization 003E  
                            ?_SYSTEM_Initialize 0070                                    ?_verify_uart 0070  
                 __end_of_EUSART1_RxDataHandler 02E9                                  __pcstackCOMMON 0070  
                           ??_SYSTEM_Initialize 0074                                   __end_of_fputc 0171  
                                 __end_of_putch 0340                          __end_of_PMD_Initialize 032B  
                          __end_of_EUSART1_Read 023D                          ??_EUSART1_Transmit_ISR 0070  
                   __end_of_EUSART1_Receive_ISR 01E9                                         ??_fputc 0077  
                     __end_of_SYSTEM_Initialize 0308                                         ??_putch 0073  
                                 _eusart1RxHead 007C                                   _eusart1TxHead 0047  
                                 _eusart1RxTail 0044                                      __pbssBANK0 0020  
                                    __pbssBANK1 00A0                                   _eusart1TxTail 0046  
             _EUSART1_TxDefaultInterruptHandler 0040                 ??_EUSART1_SetRxInterruptHandler 0073  
               __end_of_EUSART1_SetErrorHandler 035E                                      __pmaintext 0315  
                                    __pintentry 0004                                         ?_printf 0058  
                               ?_PMD_Initialize 0070          __end_of_EUSART1_SetFramingErrorHandler 0358  
                _EUSART1_SetFramingErrorHandler 0352                    ?_EUSART1_DefaultErrorHandler 0070  
                                       _SP1BRGH 011C                                         _SP1BRGL 011B  
                                       _OSCCON1 088D                                         _OSCCON3 088F  
                                       _OSCTUNE 0892                                         _SLRCONA 1F3B  
                                       _SLRCONB 1F46                                         _SLRCONC 1F51  
                                     ?_vfprintf 0050                             _EUSART1_is_rx_ready 032B  
                                       __ptext1 00BE                                         __ptext2 02E9  
                                       __ptext3 0266                                         __ptext4 0042  
                                       __ptext5 0130                                         __ptext6 033A  
                                       __ptext7 01E9                                         __ptext8 032B  
                                       __ptext9 0213                           _OSCILLATOR_Initialize 0308  
                            _EUSART1_Initialize 0171                        ??_PIN_MANAGER_Initialize 0071  
                 ??_EUSART1_DefaultErrorHandler 0071                                         main@arr 0062  
                                       clrloop0 0335                            end_of_initialization 003E  
                          ?_EUSART1_is_rx_ready 0070                             ?_EUSART1_Initialize 0070  
                                       fputc@fp 0076                     _EUSART1_OverrunErrorHandler 003A  
         __end_of_EUSART1_SetRxInterruptHandler 034C                   _EUSART1_SetRxInterruptHandler 0346  
                             __end_of_vfpfcnvrt 00BE                                      ??_vfprintf 0053  
                          ??_EUSART1_Initialize 0073                             EUSART1_Write@txData 0072  
                         ??_EUSART1_is_rx_ready 0071                                    _EUSART1_Read 0213  
                                verify_uart@arr 005F                                     vfpfcnvrt@ap 0049  
                                   vfpfcnvrt@fp 004F                          ?_OSCILLATOR_Initialize 0070  
                                __end_of_printf 02FB                             start_initialization 002D  
 EUSART1_SetRxInterruptHandler@interruptHandler 0071   EUSART1_SetTxInterruptHandler@interruptHandler 0071  
                                   putch@txData 0073                           __end_of_EUSART1_Write 0213  
                                   vfprintf@fmt 0050                                ??_PMD_Initialize 0071  
                         _EUSART1_RxDataHandler 02CF                  ?_EUSART1_SetRxInterruptHandler 0071  
                                      ??_printf 005A                                  _eusart1RxCount 0043  
                                   __pbssCOMMON 007C               _EUSART1_RxDefaultInterruptHandler 003E  
                                     ___latbits 0003                                   __pcstackBANK0 0048  
               ??_EUSART1_SetTxInterruptHandler 0073                ??_EUSART1_SetFramingErrorHandler 0073  
               ?_EUSART1_SetFramingErrorHandler 0071                          _PIN_MANAGER_Initialize 023D  
                  ??_INTERRUPT_InterruptManager 0071                                        _BAUD1CON 011F  
    __end_of_EUSART1_DefaultOverrunErrorHandler 0362            ??_EUSART1_DefaultOverrunErrorHandler 0070  
           ?_EUSART1_DefaultOverrunErrorHandler 0070              _EUSART1_DefaultOverrunErrorHandler 035E  
                          _EUSART1_ErrorHandler 0038                         _EUSART1_SetErrorHandler 0358  
       EUSART1_SetErrorHandler@interruptHandler 0071                                       clear_ram0 0334  
                                      _PIE3bits 0719                                        _PIR3bits 070F  
                                      _RX1DTPPS 1ECB                          ?_EUSART1_RxDataHandler 0070  
                                     _vfpfcnvrt 0042                           EUSART1_Read@readValue 0072  
         __end_of_EUSART1_SetTxInterruptHandler 0346                   _EUSART1_SetTxInterruptHandler 0340  
                                 ??_verify_uart 005C                                      vfprintf@ap 0052  
                                    vfprintf@fp 0055                         ??_OSCILLATOR_Initialize 0071  
                                    ?_vfpfcnvrt 0048                       ??_EUSART1_SetErrorHandler 0073  
           __end_of_EUSART1_DefaultErrorHandler 0366                     _EUSART1_DefaultErrorHandler 0362  
                   __end_of_EUSART1_is_rx_ready 0334                                        __ptext10 02FB  
                                      __ptext11 0321                                        __ptext12 023D  
                                      __ptext21 028E                                        __ptext13 0308  
                                      __ptext22 01B0                                        __ptext14 0171  
                                      __ptext23 035E                                        __ptext15 0340  
                                      __ptext24 036C                                        __ptext16 0346  
                                      __ptext25 0362                                        __ptext17 034C  
                                      __ptext26 02CF                                        __ptext18 0352  
                                      __ptext19 0358                                      _RC1STAbits 011D  
EUSART1_SetOverrunErrorHandler@interruptHandler 0071                                        int$flags 007E  
                                      _vfprintf 0266              __end_of_INTERRUPT_InterruptManager 002B  
                    _INTERRUPT_InterruptManager 0004                                       printf@fmt 0058  
                           __end_of_verify_uart 0130                     _EUSART1_FramingErrorHandler 003C  
                           _EUSART1_Receive_ISR 01B0                                      _INTCONbits 000B  
                                      intlevel1 0000                            ?_EUSART1_Receive_ISR 0070  
                       ?_PIN_MANAGER_Initialize 0070          __end_of_EUSART1_SetOverrunErrorHandler 0352  
                _EUSART1_SetOverrunErrorHandler 034C                    __end_of_EUSART1_Transmit_ISR 02B0  
                                      printf@ap 005B  EUSART1_SetFramingErrorHandler@interruptHandler 0071  
                ?_EUSART1_SetTxInterruptHandler 0071                                     ??_vfpfcnvrt 004A  
                            _eusart1RxLastError 0042                                   __pstringtext1 02B0  
                                 __pstringtext2 0366                                   __pstringtext3 0368  
                                 __pstringtext4 036A                                   __pstringtext5 0000  
                                    _TX1STAbits 011E                           ??_EUSART1_Receive_ISR 0071  
                __end_of_PIN_MANAGER_Initialize 0266                         ??_EUSART1_RxDataHandler 0070  
                                   _verify_uart 00BE  
